TN:
SF:/usr/include/c++/7/bits/alloc_traits.h
FN:435,_ZNSt16allocator_traitsISaIhEE8allocateERS0_m
FN:435,_ZNSt16allocator_traitsISaImEE8allocateERS0_m
FN:461,_ZNSt16allocator_traitsISaIhEE10deallocateERS0_Phm
FN:461,_ZNSt16allocator_traitsISaImEE10deallocateERS0_Pmm
FN:474,_ZNSt16allocator_traitsISaImEE9constructImJRKmEEEvRS0_PT_DpOT0_
FN:486,_ZNSt16allocator_traitsISaImEE7destroyImEEvRS0_PT_
FN:495,_ZNSt16allocator_traitsISaIhEE8max_sizeERKS0_
FN:495,_ZNSt16allocator_traitsISaImEE8max_sizeERKS0_
FN:504,_ZNSt16allocator_traitsISaIhEE37select_on_container_copy_constructionERKS0_
FNDA:1461,_ZNSt16allocator_traitsISaIhEE8allocateERS0_m
FNDA:3930,_ZNSt16allocator_traitsISaImEE8allocateERS0_m
FNDA:1461,_ZNSt16allocator_traitsISaIhEE10deallocateERS0_Phm
FNDA:3930,_ZNSt16allocator_traitsISaImEE10deallocateERS0_Pmm
FNDA:321,_ZNSt16allocator_traitsISaImEE9constructImJRKmEEEvRS0_PT_DpOT0_
FNDA:321,_ZNSt16allocator_traitsISaImEE7destroyImEEvRS0_PT_
FNDA:2230,_ZNSt16allocator_traitsISaIhEE8max_sizeERKS0_
FNDA:1046,_ZNSt16allocator_traitsISaImEE8max_sizeERKS0_
FNDA:135,_ZNSt16allocator_traitsISaIhEE37select_on_container_copy_constructionERKS0_
FNF:9
FNH:9
DA:435,5391
DA:436,5391
DA:461,5391
DA:462,5391
DA:474,321
DA:475,321
DA:486,321
DA:487,321
DA:495,3276
DA:496,3276
DA:504,135
DA:505,135
LF:12
LH:12
end_of_record
SF:/usr/include/c++/7/bits/allocator.h
FN:131,_ZNSaImEC2Ev
FN:131,_ZNSaIhEC2Ev
FN:133,_ZNSaImEC2ERKS_
FN:133,_ZNSaIhEC2ERKS_
FN:139,_ZNSaIhED2Ev
FN:139,_ZNSaImED2Ev
FNDA:1290,_ZNSaIhEC2Ev
FNDA:4049,_ZNSaImEC2Ev
FNDA:3407,_ZNSaImEC2ERKS_
FNDA:488,_ZNSaIhEC2ERKS_
FNDA:1778,_ZNSaIhED2Ev
FNDA:7456,_ZNSaImED2Ev
FNF:6
FNH:6
DA:131,5339
DA:133,3895
DA:134,3895
DA:139,9234
LF:4
LH:4
end_of_record
SF:/usr/include/c++/7/bits/cpp_type_traits.h
FN:408,_ZSt12__miter_baseIPhET_S1_
FN:408,_ZSt12__miter_baseIPKhET_S2_
FN:408,_ZSt12__miter_baseIPmET_S1_
FN:408,_ZSt12__miter_baseIN9__gnu_cxx17__normal_iteratorIPKhSt6vectorIhSaIhEEEEET_S8_
FNDA:270,_ZSt12__miter_baseIN9__gnu_cxx17__normal_iteratorIPKhSt6vectorIhSaIhEEEEET_S8_
FNDA:452,_ZSt12__miter_baseIPKhET_S2_
FNDA:2682,_ZSt12__miter_baseIPhET_S1_
FNDA:2734,_ZSt12__miter_baseIPmET_S1_
FNF:4
FNH:4
DA:408,6138
DA:409,6138
LF:2
LH:2
end_of_record
SF:/usr/include/c++/7/bits/ios_base.h
FN:83,_ZStanSt13_Ios_FmtflagsS_
FN:87,_ZStorSt13_Ios_FmtflagsS_
FN:95,_ZStcoSt13_Ios_Fmtflags
FN:99,_ZStoRRSt13_Ios_FmtflagsS_
FN:103,_ZStaNRSt13_Ios_FmtflagsS_
FN:129,_ZStorSt13_Ios_OpenmodeS_
FN:663,_ZNSt8ios_base4setfESt13_Ios_FmtflagsS0_
FN:1024,_ZSt3hexRSt8ios_base
FNDA:330,_ZStanSt13_Ios_FmtflagsS_
FNDA:165,_ZStorSt13_Ios_FmtflagsS_
FNDA:165,_ZStcoSt13_Ios_Fmtflags
FNDA:165,_ZStoRRSt13_Ios_FmtflagsS_
FNDA:165,_ZStaNRSt13_Ios_FmtflagsS_
FNDA:552,_ZStorSt13_Ios_OpenmodeS_
FNDA:165,_ZNSt8ios_base4setfESt13_Ios_FmtflagsS0_
FNDA:165,_ZSt3hexRSt8ios_base
FNF:8
FNH:8
DA:83,330
DA:84,330
DA:87,165
DA:88,165
DA:95,165
DA:96,165
DA:99,165
DA:100,165
DA:103,165
DA:104,165
DA:129,552
DA:130,552
DA:663,165
DA:665,165
DA:666,165
DA:667,165
DA:668,165
DA:1024,165
DA:1026,165
DA:1027,165
LF:20
LH:20
end_of_record
SF:/usr/include/c++/7/bits/move.h
FN:47,_ZSt11__addressofImEPT_RS0_
FN:73,_ZSt7forwardIRKmEOT_RNSt16remove_referenceIS2_E4typeE
FN:137,_ZSt9addressofImEPT_RS0_
FNDA:642,_ZSt11__addressofImEPT_RS0_
FNDA:963,_ZSt7forwardIRKmEOT_RNSt16remove_referenceIS2_E4typeE
FNDA:642,_ZSt9addressofImEPT_RS0_
FNF:3
FNH:3
DA:47,642
DA:48,642
DA:73,963
DA:74,963
DA:137,642
DA:138,642
LF:6
LH:6
end_of_record
SF:/usr/include/c++/7/bits/postypes.h
FN:137,_ZNKSt4fposI11__mbstate_tEcvlEv
FNDA:552,_ZNKSt4fposI11__mbstate_tEcvlEv
FNF:1
FNH:1
DA:137,552
LF:1
LH:1
end_of_record
SF:/usr/include/c++/7/bits/ptr_traits.h
FN:141,_ZNSt14pointer_traitsIPmE10pointer_toERm
FNDA:642,_ZNSt14pointer_traitsIPmE10pointer_toERm
FNF:1
FNH:1
DA:141,642
DA:142,642
LF:2
LH:2
end_of_record
SF:/usr/include/c++/7/bits/stl_algobase.h
FN:219,_ZSt3maxImERKT_S2_S2_
FN:277,_ZSt12__niter_baseIPhET_S1_
FN:277,_ZSt12__niter_baseIPmET_S1_
FN:277,_ZSt12__niter_baseIPKhET_S2_
FN:357,_ZNSt11__copy_moveILb1ELb1ESt26random_access_iterator_tagE8__copy_mIhEEPT_PKS3_S6_S4_
FN:357,_ZNSt11__copy_moveILb0ELb1ESt26random_access_iterator_tagE8__copy_mIhEEPT_PKS3_S6_S4_
FN:357,_ZNSt11__copy_moveILb1ELb1ESt26random_access_iterator_tagE8__copy_mImEEPT_PKS3_S6_S4_
FN:375,_ZSt13__copy_move_aILb0EPKhPhET1_T0_S4_S3_
FN:375,_ZSt13__copy_move_aILb1EPhS0_ET1_T0_S2_S1_
FN:375,_ZSt13__copy_move_aILb1EPmS0_ET1_T0_S2_S1_
FN:420,_ZSt14__copy_move_a2ILb0EPKhN9__gnu_cxx17__normal_iteratorIPhSt6vectorIhSaIhEEEEET1_T0_SA_S9_
FN:420,_ZSt14__copy_move_a2ILb1EPmS0_ET1_T0_S2_S1_
FN:420,_ZSt14__copy_move_a2ILb0EPKhPhET1_T0_S4_S3_
FN:420,_ZSt14__copy_move_a2ILb0EN9__gnu_cxx17__normal_iteratorIPKhSt6vectorIhSaIhEEEEPhET1_T0_SA_S9_
FN:420,_ZSt14__copy_move_a2ILb1EPhS0_ET1_T0_S2_S1_
FN:446,_ZSt4copyIN9__gnu_cxx17__normal_iteratorIPKhSt6vectorIhSaIhEEEEPhET0_T_SA_S9_
FN:446,_ZSt4copyIPKhN9__gnu_cxx17__normal_iteratorIPhSt6vectorIhSaIhEEEEET0_T_SA_S9_
FN:446,_ZSt4copyISt13move_iteratorIPmES1_ET0_T_S4_S3_
FN:446,_ZSt4copyISt13move_iteratorIPhES1_ET0_T_S4_S3_
FN:446,_ZSt4copyIPKhPhET0_T_S4_S3_
FN:559,_ZNSt20__copy_move_backwardILb1ELb1ESt26random_access_iterator_tagE13__copy_move_bImEEPT_PKS3_S6_S4_
FN:559,_ZNSt20__copy_move_backwardILb1ELb1ESt26random_access_iterator_tagE13__copy_move_bIhEEPT_PKS3_S6_S4_
FN:577,_ZSt22__copy_move_backward_aILb1EPmS0_ET1_T0_S2_S1_
FN:577,_ZSt22__copy_move_backward_aILb1EPhS0_ET1_T0_S2_S1_
FN:595,_ZSt23__copy_move_backward_a2ILb1EPhS0_ET1_T0_S2_S1_
FN:595,_ZSt23__copy_move_backward_a2ILb1EPmS0_ET1_T0_S2_S1_
FN:658,_ZSt13move_backwardIPmS0_ET0_T_S2_S1_
FN:658,_ZSt13move_backwardIPhS0_ET0_T_S2_S1_
FN:691,_ZSt8__fill_aIPmmEN9__gnu_cxx11__enable_ifIXsrSt11__is_scalarIT0_E7__valueEvE6__typeET_S8_RKS4_
FN:703,_ZSt8__fill_aIhEN9__gnu_cxx11__enable_ifIXsrSt9__is_byteIT_E7__valueEvE6__typeEPS3_S7_RKS3_
FN:724,_ZSt4fillIPmmEvT_S1_RKT0_
FN:749,_ZSt10__fill_n_aIPmmmEN9__gnu_cxx11__enable_ifIXsrSt11__is_scalarIT1_E7__valueET_E6__typeES6_T0_RKS4_
FN:761,_ZSt10__fill_n_aImhEN9__gnu_cxx11__enable_ifIXsrSt9__is_byteIT0_E7__valueEPS3_E6__typeES5_T_RKS3_
FN:784,_ZSt6fill_nIPhmhET_S1_T0_RKT1_
FN:784,_ZSt6fill_nIPmmmET_S1_T0_RKT1_
FNDA:1638,_ZSt3maxImERKT_S2_S2_
FNDA:452,_ZSt12__niter_baseIPKhET_S2_
FNDA:5491,_ZSt12__niter_baseIPhET_S1_
FNDA:8994,_ZSt12__niter_baseIPmET_S1_
FNDA:1341,_ZNSt11__copy_moveILb1ELb1ESt26random_access_iterator_tagE8__copy_mIhEEPT_PKS3_S6_S4_
FNDA:1367,_ZNSt11__copy_moveILb1ELb1ESt26random_access_iterator_tagE8__copy_mImEEPT_PKS3_S6_S4_
FNDA:361,_ZNSt11__copy_moveILb0ELb1ESt26random_access_iterator_tagE8__copy_mIhEEPT_PKS3_S6_S4_
FNDA:1341,_ZSt13__copy_move_aILb1EPhS0_ET1_T0_S2_S1_
FNDA:1367,_ZSt13__copy_move_aILb1EPmS0_ET1_T0_S2_S1_
FNDA:361,_ZSt13__copy_move_aILb0EPKhPhET1_T0_S4_S3_
FNDA:226,_ZSt14__copy_move_a2ILb0EPKhPhET1_T0_S4_S3_
FNDA:1341,_ZSt14__copy_move_a2ILb1EPhS0_ET1_T0_S2_S1_
FNDA:1367,_ZSt14__copy_move_a2ILb1EPmS0_ET1_T0_S2_S1_
FNDA:135,_ZSt14__copy_move_a2ILb0EN9__gnu_cxx17__normal_iteratorIPKhSt6vectorIhSaIhEEEEPhET1_T0_SA_S9_
FNDA:0,_ZSt14__copy_move_a2ILb0EPKhN9__gnu_cxx17__normal_iteratorIPhSt6vectorIhSaIhEEEEET1_T0_SA_S9_
FNDA:226,_ZSt4copyIPKhPhET0_T_S4_S3_
FNDA:1341,_ZSt4copyISt13move_iteratorIPhES1_ET0_T_S4_S3_
FNDA:1367,_ZSt4copyISt13move_iteratorIPmES1_ET0_T_S4_S3_
FNDA:135,_ZSt4copyIN9__gnu_cxx17__normal_iteratorIPKhSt6vectorIhSaIhEEEEPhET0_T_SA_S9_
FNDA:0,_ZSt4copyIPKhN9__gnu_cxx17__normal_iteratorIPhSt6vectorIhSaIhEEEEET0_T_SA_S9_
FNDA:0,_ZNSt20__copy_move_backwardILb1ELb1ESt26random_access_iterator_tagE13__copy_move_bIhEEPT_PKS3_S6_S4_
FNDA:0,_ZNSt20__copy_move_backwardILb1ELb1ESt26random_access_iterator_tagE13__copy_move_bImEEPT_PKS3_S6_S4_
FNDA:0,_ZSt22__copy_move_backward_aILb1EPhS0_ET1_T0_S2_S1_
FNDA:0,_ZSt22__copy_move_backward_aILb1EPmS0_ET1_T0_S2_S1_
FNDA:0,_ZSt23__copy_move_backward_a2ILb1EPhS0_ET1_T0_S2_S1_
FNDA:0,_ZSt23__copy_move_backward_a2ILb1EPmS0_ET1_T0_S2_S1_
FNDA:0,_ZSt13move_backwardIPhS0_ET0_T_S2_S1_
FNDA:0,_ZSt13move_backwardIPmS0_ET0_T_S2_S1_
FNDA:321,_ZSt8__fill_aIPmmEN9__gnu_cxx11__enable_ifIXsrSt11__is_scalarIT0_E7__valueEvE6__typeET_S8_RKS4_
FNDA:1107,_ZSt8__fill_aIhEN9__gnu_cxx11__enable_ifIXsrSt9__is_byteIT_E7__valueEvE6__typeEPS3_S7_RKS3_
FNDA:321,_ZSt4fillIPmmEvT_S1_RKT0_
FNDA:4251,_ZSt10__fill_n_aIPmmmEN9__gnu_cxx11__enable_ifIXsrSt11__is_scalarIT1_E7__valueET_E6__typeES6_T0_RKS4_
FNDA:1107,_ZSt10__fill_n_aImhEN9__gnu_cxx11__enable_ifIXsrSt9__is_byteIT0_E7__valueEPS3_E6__typeES5_T_RKS3_
FNDA:1107,_ZSt6fill_nIPhmhET_S1_T0_RKT1_
FNDA:4251,_ZSt6fill_nIPmmmET_S1_T0_RKT1_
FNF:35
FNH:25
DA:219,1638
DA:224,1638
DA:225,1559
DA:226,79
DA:277,14937
DA:278,14937
DA:357,3069
DA:366,3069
DA:367,3069
DA:368,710
DA:369,3069
DA:375,3069
DA:380,3069
DA:386,3069
DA:420,3069
DA:422,3069
DA:424,3069
DA:446,3069
DA:455,3069
DA:456,3069
DA:559,0
DA:568,0
DA:569,0
DA:570,0
DA:571,0
DA:577,0
DA:582,0
DA:590,0
DA:595,0
DA:598,0
DA:599,0
DA:658,0
DA:668,0
DA:670,0
DA:691,321
DA:694,321
DA:695,321
DA:696,0
DA:697,321
DA:703,1107
DA:705,1107
DA:706,1107
DA:707,1106
DA:708,1107
DA:724,321
DA:731,321
DA:733,321
DA:749,4251
DA:751,4251
DA:752,432343
DA:753,432343
DA:754,428092
DA:755,4251
DA:761,1107
DA:763,1107
DA:764,1107
DA:784,5358
DA:789,5358
LF:58
LH:43
end_of_record
SF:/usr/include/c++/7/bits/stl_construct.h
FN:117,_ZNSt12_Destroy_auxILb1EE9__destroyIPmEEvT_S3_
FN:117,_ZNSt12_Destroy_auxILb1EE9__destroyIPhEEvT_S3_
FN:127,_ZSt8_DestroyIPhEvT_S1_
FN:127,_ZSt8_DestroyIPmEvT_S1_
FN:203,_ZSt8_DestroyIPhhEvT_S1_RSaIT0_E
FN:203,_ZSt8_DestroyIPmmEvT_S1_RSaIT0_E
FNDA:2711,_ZNSt12_Destroy_auxILb1EE9__destroyIPhEEvT_S3_
FNDA:5416,_ZNSt12_Destroy_auxILb1EE9__destroyIPmEEvT_S3_
FNDA:2711,_ZSt8_DestroyIPhEvT_S1_
FNDA:5416,_ZSt8_DestroyIPmEvT_S1_
FNDA:2711,_ZSt8_DestroyIPhhEvT_S1_RSaIT0_E
FNDA:5416,_ZSt8_DestroyIPmmEvT_S1_RSaIT0_E
FNF:6
FNH:6
DA:117,8127
DA:127,8127
DA:137,8127
DA:138,8127
DA:203,8127
DA:206,8127
DA:207,8127
LF:7
LH:7
end_of_record
SF:/usr/include/c++/7/bits/stl_iterator.h
FN:782,_ZN9__gnu_cxx17__normal_iteratorIPKhSt6vectorIhSaIhEEEC2ERKS2_
FN:782,_ZN9__gnu_cxx17__normal_iteratorIPhSt6vectorIhSaIhEEEC2ERKS1_
FN:782,_ZN9__gnu_cxx17__normal_iteratorIPmSt6vectorImSaImEEEC2ERKS1_
FN:787,_ZN9__gnu_cxx17__normal_iteratorIPKhSt6vectorIhSaIhEEEC2IPhEERKNS0_IT_NS_11__enable_ifIXsrSt10__are_sameIS9_S8_E7__valueES5_E6__typeEEE
FN:835,_ZNK9__gnu_cxx17__normal_iteratorIPhSt6vectorIhSaIhEEEplEl
FN:847,_ZNK9__gnu_cxx17__normal_iteratorIPmSt6vectorImSaImEEE4baseEv
FN:847,_ZNK9__gnu_cxx17__normal_iteratorIPhSt6vectorIhSaIhEEE4baseEv
FN:847,_ZNK9__gnu_cxx17__normal_iteratorIPKhSt6vectorIhSaIhEEE4baseEv
FN:869,_ZN9__gnu_cxxeqIPKhSt6vectorIhSaIhEEEEbRKNS_17__normal_iteratorIT_T0_EESB_
FN:965,_ZN9__gnu_cxxmiIPKhSt6vectorIhSaIhEEEENS_17__normal_iteratorIT_T0_E15difference_typeERKS9_SC_
FN:965,_ZN9__gnu_cxxmiIPmSt6vectorImSaImEEEENS_17__normal_iteratorIT_T0_E15difference_typeERKS8_SB_
FN:965,_ZN9__gnu_cxxmiIPhSt6vectorIhSaIhEEEENS_17__normal_iteratorIT_T0_E15difference_typeERKS8_SB_
FN:986,_ZSt12__niter_baseIPKhSt6vectorIhSaIhEEET_N9__gnu_cxx17__normal_iteratorIS5_T0_EE
FN:986,_ZSt12__niter_baseIPhSt6vectorIhSaIhEEET_N9__gnu_cxx17__normal_iteratorIS4_T0_EE
FN:1039,_ZNSt13move_iteratorIPhEC2ES0_
FN:1039,_ZNSt13move_iteratorIPmEC2ES0_
FN:1048,_ZNKSt13move_iteratorIPmE4baseEv
FN:1048,_ZNKSt13move_iteratorIPhE4baseEv
FN:1207,_ZSt18make_move_iteratorIPhESt13move_iteratorIT_ES2_
FN:1207,_ZSt18make_move_iteratorIPmESt13move_iteratorIT_ES2_
FN:1224,_ZSt32__make_move_if_noexcept_iteratorIhSt13move_iteratorIPhEET0_PT_
FN:1224,_ZSt32__make_move_if_noexcept_iteratorImSt13move_iteratorIPmEET0_PT_
FN:1244,_ZSt12__miter_baseIPmEDTcl12__miter_basecldtfp_4baseEEESt13move_iteratorIT_E
FN:1244,_ZSt12__miter_baseIPhEDTcl12__miter_basecldtfp_4baseEEESt13move_iteratorIT_E
FNDA:1320,_ZN9__gnu_cxx17__normal_iteratorIPKhSt6vectorIhSaIhEEEC2ERKS2_
FNDA:1688,_ZN9__gnu_cxx17__normal_iteratorIPmSt6vectorImSaImEEEC2ERKS1_
FNDA:1140,_ZN9__gnu_cxx17__normal_iteratorIPhSt6vectorIhSaIhEEEC2ERKS1_
FNDA:228,_ZN9__gnu_cxx17__normal_iteratorIPKhSt6vectorIhSaIhEEEC2IPhEERKNS0_IT_NS_11__enable_ifIXsrSt10__are_sameIS9_S8_E7__valueES5_E6__typeEEE
FNDA:456,_ZNK9__gnu_cxx17__normal_iteratorIPhSt6vectorIhSaIhEEEplEl
FNDA:1548,_ZNK9__gnu_cxx17__normal_iteratorIPKhSt6vectorIhSaIhEEE4baseEv
FNDA:3376,_ZNK9__gnu_cxx17__normal_iteratorIPmSt6vectorImSaImEEE4baseEv
FNDA:680,_ZNK9__gnu_cxx17__normal_iteratorIPhSt6vectorIhSaIhEEE4baseEv
FNDA:411,_ZN9__gnu_cxxeqIPKhSt6vectorIhSaIhEEEEbRKNS_17__normal_iteratorIT_T0_EESB_
FNDA:0,_ZN9__gnu_cxxmiIPhSt6vectorIhSaIhEEEENS_17__normal_iteratorIT_T0_E15difference_typeERKS8_SB_
FNDA:844,_ZN9__gnu_cxxmiIPmSt6vectorImSaImEEEENS_17__normal_iteratorIT_T0_E15difference_typeERKS8_SB_
FNDA:228,_ZN9__gnu_cxxmiIPKhSt6vectorIhSaIhEEEENS_17__normal_iteratorIT_T0_E15difference_typeERKS9_SC_
FNDA:270,_ZSt12__niter_baseIPKhSt6vectorIhSaIhEEET_N9__gnu_cxx17__normal_iteratorIS5_T0_EE
FNDA:0,_ZSt12__niter_baseIPhSt6vectorIhSaIhEEET_N9__gnu_cxx17__normal_iteratorIS4_T0_EE
FNDA:2682,_ZNSt13move_iteratorIPhEC2ES0_
FNDA:2734,_ZNSt13move_iteratorIPmEC2ES0_
FNDA:2682,_ZNKSt13move_iteratorIPhE4baseEv
FNDA:2734,_ZNKSt13move_iteratorIPmE4baseEv
FNDA:0,_ZSt18make_move_iteratorIPhESt13move_iteratorIT_ES2_
FNDA:642,_ZSt18make_move_iteratorIPmESt13move_iteratorIT_ES2_
FNDA:2682,_ZSt32__make_move_if_noexcept_iteratorIhSt13move_iteratorIPhEET0_PT_
FNDA:2092,_ZSt32__make_move_if_noexcept_iteratorImSt13move_iteratorIPmEET0_PT_
FNDA:2682,_ZSt12__miter_baseIPhEDTcl12__miter_basecldtfp_4baseEEESt13move_iteratorIT_E
FNDA:2734,_ZSt12__miter_baseIPmEDTcl12__miter_basecldtfp_4baseEEESt13move_iteratorIT_E
FNF:24
FNH:21
DA:782,4148
DA:783,4148
DA:787,228
DA:791,228
DA:835,456
DA:836,456
DA:847,5604
DA:848,5604
DA:869,411
DA:872,411
DA:965,1072
DA:968,1072
DA:986,270
DA:987,270
DA:1039,5416
DA:1040,5416
DA:1048,5416
DA:1049,5416
DA:1207,642
DA:1208,642
DA:1224,4774
DA:1225,4774
DA:1244,5416
DA:1246,5416
LF:24
LH:24
end_of_record
SF:/usr/include/c++/7/bits/stl_iterator_base_funcs.h
FN:98,_ZSt10__distanceIPKhENSt15iterator_traitsIT_E15difference_typeES3_S3_St26random_access_iterator_tag
FN:138,_ZSt8distanceIPKhENSt15iterator_traitsIT_E15difference_typeES3_S3_
FN:174,_ZSt9__advanceIPKhlEvRT_T0_St26random_access_iterator_tag
FN:197,_ZSt7advanceIPKhmEvRT_T0_
FNDA:226,_ZSt10__distanceIPKhENSt15iterator_traitsIT_E15difference_typeES3_S3_St26random_access_iterator_tag
FNDA:226,_ZSt8distanceIPKhENSt15iterator_traitsIT_E15difference_typeES3_S3_
FNDA:0,_ZSt9__advanceIPKhlEvRT_T0_St26random_access_iterator_tag
FNDA:0,_ZSt7advanceIPKhmEvRT_T0_
FNF:4
FNH:2
DA:98,226
DA:104,226
DA:138,226
DA:141,226
DA:142,452
DA:174,0
DA:180,0
DA:181,0
DA:197,0
DA:200,0
DA:201,0
DA:202,0
LF:12
LH:5
end_of_record
SF:/usr/include/c++/7/bits/stl_iterator_base_types.h
FN:205,_ZSt19__iterator_categoryIPKhENSt15iterator_traitsIT_E17iterator_categoryERKS3_
FNDA:454,_ZSt19__iterator_categoryIPKhENSt15iterator_traitsIT_E17iterator_categoryERKS3_
FNF:1
FNH:1
DA:205,454
DA:206,454
LF:2
LH:2
end_of_record
SF:/usr/include/c++/7/bits/stl_uninitialized.h
FN:99,_ZNSt20__uninitialized_copyILb1EE13__uninit_copyIN9__gnu_cxx17__normal_iteratorIPKhSt6vectorIhSaIhEEEEPhEET0_T_SC_SB_
FN:99,_ZNSt20__uninitialized_copyILb1EE13__uninit_copyISt13move_iteratorIPhES3_EET0_T_S6_S5_
FN:99,_ZNSt20__uninitialized_copyILb1EE13__uninit_copyIPKhPhEET0_T_S6_S5_
FN:99,_ZNSt20__uninitialized_copyILb1EE13__uninit_copyISt13move_iteratorIPmES3_EET0_T_S6_S5_
FN:115,_ZSt18uninitialized_copyISt13move_iteratorIPmES1_ET0_T_S4_S3_
FN:115,_ZSt18uninitialized_copyIN9__gnu_cxx17__normal_iteratorIPKhSt6vectorIhSaIhEEEEPhET0_T_SA_S9_
FN:115,_ZSt18uninitialized_copyISt13move_iteratorIPhES1_ET0_T_S4_S3_
FN:115,_ZSt18uninitialized_copyIPKhPhET0_T_S4_S3_
FN:226,_ZNSt22__uninitialized_fill_nILb1EE15__uninit_fill_nIPmmmEET_S3_T0_RKT1_
FN:244,_ZSt20uninitialized_fill_nIPmmmET_S1_T0_RKT1_
FN:287,_ZSt22__uninitialized_copy_aIPKhPhhET0_T_S4_S3_RSaIT1_E
FN:287,_ZSt22__uninitialized_copy_aISt13move_iteratorIPmES1_mET0_T_S4_S3_RSaIT1_E
FN:287,_ZSt22__uninitialized_copy_aISt13move_iteratorIPhES1_hET0_T_S4_S3_RSaIT1_E
FN:287,_ZSt22__uninitialized_copy_aIN9__gnu_cxx17__normal_iteratorIPKhSt6vectorIhSaIhEEEEPhhET0_T_SA_S9_RSaIT1_E
FN:294,_ZSt22__uninitialized_move_aIPmS0_SaImEET0_T_S3_S2_RT1_
FN:294,_ZSt22__uninitialized_move_aIPhS0_SaIhEET0_T_S3_S2_RT1_
FN:305,_ZSt34__uninitialized_move_if_noexcept_aIPmS0_SaImEET0_T_S3_S2_RT1_
FN:305,_ZSt34__uninitialized_move_if_noexcept_aIPhS0_SaIhEET0_T_S3_S2_RT1_
FN:364,_ZSt24__uninitialized_fill_n_aIPmmmmET_S1_T0_RKT1_RSaIT2_E
FN:543,_ZNSt27__uninitialized_default_n_1ILb1EE18__uninit_default_nIPhmEET_S3_T0_
FN:543,_ZNSt27__uninitialized_default_n_1ILb1EE18__uninit_default_nIPmmEET_S3_T0_
FN:574,_ZSt25__uninitialized_default_nIPmmET_S1_T0_
FN:574,_ZSt25__uninitialized_default_nIPhmET_S1_T0_
FN:643,_ZSt27__uninitialized_default_n_aIPhmhET_S1_T0_RSaIT1_E
FN:643,_ZSt27__uninitialized_default_n_aIPmmmET_S1_T0_RSaIT1_E
FNDA:226,_ZNSt20__uninitialized_copyILb1EE13__uninit_copyIPKhPhEET0_T_S6_S5_
FNDA:1341,_ZNSt20__uninitialized_copyILb1EE13__uninit_copyISt13move_iteratorIPhES3_EET0_T_S6_S5_
FNDA:1367,_ZNSt20__uninitialized_copyILb1EE13__uninit_copyISt13move_iteratorIPmES3_EET0_T_S6_S5_
FNDA:135,_ZNSt20__uninitialized_copyILb1EE13__uninit_copyIN9__gnu_cxx17__normal_iteratorIPKhSt6vectorIhSaIhEEEEPhEET0_T_SC_SB_
FNDA:226,_ZSt18uninitialized_copyIPKhPhET0_T_S4_S3_
FNDA:1341,_ZSt18uninitialized_copyISt13move_iteratorIPhES1_ET0_T_S4_S3_
FNDA:1367,_ZSt18uninitialized_copyISt13move_iteratorIPmES1_ET0_T_S4_S3_
FNDA:135,_ZSt18uninitialized_copyIN9__gnu_cxx17__normal_iteratorIPKhSt6vectorIhSaIhEEEEPhET0_T_SA_S9_
FNDA:3158,_ZNSt22__uninitialized_fill_nILb1EE15__uninit_fill_nIPmmmEET_S3_T0_RKT1_
FNDA:3158,_ZSt20uninitialized_fill_nIPmmmET_S1_T0_RKT1_
FNDA:226,_ZSt22__uninitialized_copy_aIPKhPhhET0_T_S4_S3_RSaIT1_E
FNDA:1341,_ZSt22__uninitialized_copy_aISt13move_iteratorIPhES1_hET0_T_S4_S3_RSaIT1_E
FNDA:1367,_ZSt22__uninitialized_copy_aISt13move_iteratorIPmES1_mET0_T_S4_S3_RSaIT1_E
FNDA:135,_ZSt22__uninitialized_copy_aIN9__gnu_cxx17__normal_iteratorIPKhSt6vectorIhSaIhEEEEPhhET0_T_SA_S9_RSaIT1_E
FNDA:0,_ZSt22__uninitialized_move_aIPhS0_SaIhEET0_T_S3_S2_RT1_
FNDA:321,_ZSt22__uninitialized_move_aIPmS0_SaImEET0_T_S3_S2_RT1_
FNDA:1341,_ZSt34__uninitialized_move_if_noexcept_aIPhS0_SaIhEET0_T_S3_S2_RT1_
FNDA:1046,_ZSt34__uninitialized_move_if_noexcept_aIPmS0_SaImEET0_T_S3_S2_RT1_
FNDA:3158,_ZSt24__uninitialized_fill_n_aIPmmmmET_S1_T0_RKT1_RSaIT2_E
FNDA:1107,_ZNSt27__uninitialized_default_n_1ILb1EE18__uninit_default_nIPhmEET_S3_T0_
FNDA:1093,_ZNSt27__uninitialized_default_n_1ILb1EE18__uninit_default_nIPmmEET_S3_T0_
FNDA:1107,_ZSt25__uninitialized_default_nIPhmET_S1_T0_
FNDA:1093,_ZSt25__uninitialized_default_nIPmmET_S1_T0_
FNDA:1107,_ZSt27__uninitialized_default_n_aIPhmhET_S1_T0_RSaIT1_E
FNDA:1093,_ZSt27__uninitialized_default_n_aIPmmmET_S1_T0_RSaIT1_E
FNF:25
FNH:24
DA:99,3069
DA:101,3069
DA:115,3069
DA:128,3069
DA:134,3069
DA:226,3158
DA:228,3158
DA:244,3158
DA:252,3158
DA:255,3158
DA:287,3069
DA:289,3069
DA:294,321
DA:297,321
DA:299,321
DA:305,2387
DA:311,2387
DA:312,2387
DA:364,3158
DA:366,3158
DA:543,2200
DA:548,2200
DA:574,2200
DA:579,2200
DA:583,2200
DA:643,2200
DA:645,2200
LF:27
LH:27
end_of_record
SF:/usr/include/c++/7/bits/stl_vector.h
FN:81,_ZNSt12_Vector_baseImSaImEE12_Vector_implD2Ev
FN:81,_ZNSt12_Vector_baseIhSaIhEE12_Vector_implD2Ev
FN:88,_ZNSt12_Vector_baseImSaImEE12_Vector_implC2Ev
FN:88,_ZNSt12_Vector_baseIhSaIhEE12_Vector_implC2Ev
FN:92,_ZNSt12_Vector_baseImSaImEE12_Vector_implC2ERKS0_
FN:92,_ZNSt12_Vector_baseIhSaIhEE12_Vector_implC2ERKS0_
FN:115,_ZNSt12_Vector_baseIhSaIhEE19_M_get_Tp_allocatorEv
FN:115,_ZNSt12_Vector_baseImSaImEE19_M_get_Tp_allocatorEv
FN:119,_ZNKSt12_Vector_baseIhSaIhEE19_M_get_Tp_allocatorEv
FN:119,_ZNKSt12_Vector_baseImSaImEE19_M_get_Tp_allocatorEv
FN:126,_ZNSt12_Vector_baseImSaImEEC2Ev
FN:126,_ZNSt12_Vector_baseIhSaIhEEC2Ev
FN:136,_ZNSt12_Vector_baseIhSaIhEEC2EmRKS0_
FN:136,_ZNSt12_Vector_baseImSaImEEC2EmRKS0_
FN:161,_ZNSt12_Vector_baseIhSaIhEED2Ev
FN:161,_ZNSt12_Vector_baseImSaImEED2Ev
FN:169,_ZNSt12_Vector_baseIhSaIhEE11_M_allocateEm
FN:169,_ZNSt12_Vector_baseImSaImEE11_M_allocateEm
FN:176,_ZNSt12_Vector_baseImSaImEE13_M_deallocateEPmm
FN:176,_ZNSt12_Vector_baseIhSaIhEE13_M_deallocateEPhm
FN:185,_ZNSt12_Vector_baseIhSaIhEE17_M_create_storageEm
FN:185,_ZNSt12_Vector_baseImSaImEE17_M_create_storageEm
FN:259,_ZNSt6vectorIhSaIhEEC2Ev
FN:259,_ZNSt6vectorImSaImEEC2Ev
FN:283,_ZNSt6vectorImSaImEEC2EmRKS0_
FN:283,_ZNSt6vectorIhSaIhEEC2EmRKS0_
FN:295,_ZNSt6vectorImSaImEEC2EmRKmRKS0_
FN:326,_ZNSt6vectorIhSaIhEEC2ERKS1_
FN:433,_ZNSt6vectorImSaImEED2Ev
FN:433,_ZNSt6vectorIhSaIhEED2Ev
FN:563,_ZNSt6vectorImSaImEE5beginEv
FN:563,_ZNSt6vectorIhSaIhEE5beginEv
FN:572,_ZNKSt6vectorIhSaIhEE5beginEv
FN:581,_ZNSt6vectorImSaImEE3endEv
FN:581,_ZNSt6vectorIhSaIhEE3endEv
FN:590,_ZNKSt6vectorIhSaIhEE3endEv
FN:636,_ZNKSt6vectorIhSaIhEE6cbeginEv
FN:670,_ZNKSt6vectorImSaImEE4sizeEv
FN:670,_ZNKSt6vectorIhSaIhEE4sizeEv
FN:675,_ZNKSt6vectorImSaImEE8max_sizeEv
FN:675,_ZNKSt6vectorIhSaIhEE8max_sizeEv
FN:689,_ZNSt6vectorIhSaIhEE6resizeEm
FN:709,_ZNSt6vectorImSaImEE6resizeEmRKm
FN:759,_ZNKSt6vectorIhSaIhEE5emptyEv
FN:795,_ZNSt6vectorImSaImEEixEm
FN:795,_ZNSt6vectorIhSaIhEEixEm
FN:813,_ZNKSt6vectorImSaImEEixEm
FN:813,_ZNKSt6vectorIhSaIhEEixEm
FN:1128,_ZNSt6vectorIhSaIhEE6insertIPKhvEEN9__gnu_cxx17__normal_iteratorIPhS1_EENS6_IS4_S1_EET_SA_
FN:1247,_ZNSt6vectorImSaImEE5clearEv
FN:1247,_ZNSt6vectorIhSaIhEE5clearEv
FN:1339,_ZNSt6vectorImSaImEE18_M_fill_initializeEmRKm
FN:1349,_ZNSt6vectorIhSaIhEE21_M_default_initializeEm
FN:1349,_ZNSt6vectorImSaImEE21_M_default_initializeEm
FN:1408,_ZNSt6vectorIhSaIhEE18_M_insert_dispatchIPKhEEvN9__gnu_cxx17__normal_iteratorIPhS1_EET_S9_St12__false_type
FN:1455,_ZNSt6vectorImSaImEE16_Temporary_valueC2IJRKmEEEPS1_DpOT_
FN:1461,_ZNSt6vectorImSaImEE16_Temporary_valueD2Ev
FN:1465,_ZNSt6vectorImSaImEE16_Temporary_value6_M_valEv
FN:1469,_ZNSt6vectorImSaImEE16_Temporary_value6_M_ptrEv
FN:1502,_ZNKSt6vectorImSaImEE12_M_check_lenEmPKc
FN:1502,_ZNKSt6vectorIhSaIhEE12_M_check_lenEmPKc
FN:1516,_ZNSt6vectorImSaImEE15_M_erase_at_endEPm
FN:1516,_ZNSt6vectorIhSaIhEE15_M_erase_at_endEPh
FNDA:1425,_ZNSt12_Vector_baseIhSaIhEE12_Vector_implD2Ev
FNDA:4049,_ZNSt12_Vector_baseImSaImEE12_Vector_implD2Ev
FNDA:1072,_ZNSt12_Vector_baseIhSaIhEE12_Vector_implC2Ev
FNDA:642,_ZNSt12_Vector_baseImSaImEE12_Vector_implC2Ev
FNDA:353,_ZNSt12_Vector_baseIhSaIhEE12_Vector_implC2ERKS0_
FNDA:3407,_ZNSt12_Vector_baseImSaImEE12_Vector_implC2ERKS0_
FNDA:5520,_ZNSt12_Vector_baseIhSaIhEE19_M_get_Tp_allocatorEv
FNDA:11034,_ZNSt12_Vector_baseImSaImEE19_M_get_Tp_allocatorEv
FNDA:1046,_ZNKSt12_Vector_baseImSaImEE19_M_get_Tp_allocatorEv
FNDA:2365,_ZNKSt12_Vector_baseIhSaIhEE19_M_get_Tp_allocatorEv
FNDA:1072,_ZNSt12_Vector_baseIhSaIhEEC2Ev
FNDA:642,_ZNSt12_Vector_baseImSaImEEC2Ev
FNDA:353,_ZNSt12_Vector_baseIhSaIhEEC2EmRKS0_
FNDA:3407,_ZNSt12_Vector_baseImSaImEEC2EmRKS0_
FNDA:1425,_ZNSt12_Vector_baseIhSaIhEED2Ev
FNDA:4049,_ZNSt12_Vector_baseImSaImEED2Ev
FNDA:1468,_ZNSt12_Vector_baseIhSaIhEE11_M_allocateEm
FNDA:3930,_ZNSt12_Vector_baseImSaImEE11_M_allocateEm
FNDA:2540,_ZNSt12_Vector_baseIhSaIhEE13_M_deallocateEPhm
FNDA:4572,_ZNSt12_Vector_baseImSaImEE13_M_deallocateEPmm
FNDA:353,_ZNSt12_Vector_baseIhSaIhEE17_M_create_storageEm
FNDA:3407,_ZNSt12_Vector_baseImSaImEE17_M_create_storageEm
FNDA:1072,_ZNSt6vectorIhSaIhEEC2Ev
FNDA:642,_ZNSt6vectorImSaImEEC2Ev
FNDA:218,_ZNSt6vectorIhSaIhEEC2EmRKS0_
FNDA:1093,_ZNSt6vectorImSaImEEC2EmRKS0_
FNDA:2314,_ZNSt6vectorImSaImEEC2EmRKmRKS0_
FNDA:135,_ZNSt6vectorIhSaIhEEC2ERKS1_
FNDA:1425,_ZNSt6vectorIhSaIhEED2Ev
FNDA:4049,_ZNSt6vectorImSaImEED2Ev
FNDA:523,_ZNSt6vectorImSaImEE5beginEv
FNDA:456,_ZNSt6vectorIhSaIhEE5beginEv
FNDA:546,_ZNKSt6vectorIhSaIhEE5beginEv
FNDA:1165,_ZNSt6vectorImSaImEE3endEv
FNDA:228,_ZNSt6vectorIhSaIhEE3endEv
FNDA:546,_ZNKSt6vectorIhSaIhEE3endEv
FNDA:228,_ZNKSt6vectorIhSaIhEE6cbeginEv
FNDA:97064,_ZNKSt6vectorIhSaIhEE4sizeEv
FNDA:129081,_ZNKSt6vectorImSaImEE4sizeEv
FNDA:2230,_ZNKSt6vectorIhSaIhEE8max_sizeEv
FNDA:1046,_ZNKSt6vectorImSaImEE8max_sizeEv
FNDA:1075,_ZNSt6vectorIhSaIhEE6resizeEm
FNDA:844,_ZNSt6vectorImSaImEE6resizeEmRKm
FNDA:411,_ZNKSt6vectorIhSaIhEE5emptyEv
FNDA:2330476,_ZNSt6vectorIhSaIhEEixEm
FNDA:817619,_ZNSt6vectorImSaImEEixEm
FNDA:3229,_ZNKSt6vectorIhSaIhEEixEm
FNDA:867597,_ZNKSt6vectorImSaImEEixEm
FNDA:228,_ZNSt6vectorIhSaIhEE6insertIPKhvEEN9__gnu_cxx17__normal_iteratorIPhS1_EENS6_IS4_S1_EET_SA_
FNDA:0,_ZNSt6vectorIhSaIhEE5clearEv
FNDA:844,_ZNSt6vectorImSaImEE5clearEv
FNDA:2314,_ZNSt6vectorImSaImEE18_M_fill_initializeEmRKm
FNDA:218,_ZNSt6vectorIhSaIhEE21_M_default_initializeEm
FNDA:1093,_ZNSt6vectorImSaImEE21_M_default_initializeEm
FNDA:228,_ZNSt6vectorIhSaIhEE18_M_insert_dispatchIPKhEEvN9__gnu_cxx17__normal_iteratorIPhS1_EET_S9_St12__false_type
FNDA:321,_ZNSt6vectorImSaImEE16_Temporary_valueC2IJRKmEEEPS1_DpOT_
FNDA:321,_ZNSt6vectorImSaImEE16_Temporary_valueD2Ev
FNDA:963,_ZNSt6vectorImSaImEE16_Temporary_value6_M_valEv
FNDA:642,_ZNSt6vectorImSaImEE16_Temporary_value6_M_ptrEv
FNDA:1115,_ZNKSt6vectorIhSaIhEE12_M_check_lenEmPKc
FNDA:523,_ZNKSt6vectorImSaImEE12_M_check_lenEmPKc
FNDA:171,_ZNSt6vectorIhSaIhEE15_M_erase_at_endEPh
FNDA:844,_ZNSt6vectorImSaImEE15_M_erase_at_endEPm
FNF:63
FNH:62
DA:81,5474
DA:88,1714
DA:89,1714
DA:90,1714
DA:92,3760
DA:93,3760
DA:94,3760
DA:115,16554
DA:116,16554
DA:119,3411
DA:120,3411
DA:126,1714
DA:127,1714
DA:136,3760
DA:137,3760
DA:138,3760
DA:161,5474
DA:162,10948
DA:163,10948
DA:169,5398
DA:172,5398
DA:176,7112
DA:179,7112
DA:180,5391
DA:181,7112
DA:185,3760
DA:187,3760
DA:188,3760
DA:189,3760
DA:190,3760
DA:259,1714
DA:263,1714
DA:283,1311
DA:284,1311
DA:285,1311
DA:295,2314
DA:297,2314
DA:298,2314
DA:326,135
DA:328,135
DA:330,135
DA:331,135
DA:333,135
DA:334,135
DA:433,5474
DA:434,5474
DA:435,10948
DA:563,979
DA:564,979
DA:572,546
DA:573,546
DA:581,1393
DA:582,1393
DA:590,546
DA:591,546
DA:636,228
DA:637,228
DA:670,226145
DA:671,226145
DA:675,3276
DA:676,3276
DA:689,1075
DA:691,1075
DA:692,889
DA:693,186
DA:694,171
DA:695,1075
DA:709,844
DA:711,844
DA:712,844
DA:713,0
DA:714,0
DA:715,844
DA:759,411
DA:760,411
DA:795,3148095
DA:798,3148095
DA:813,870826
DA:816,870826
DA:1128,228
DA:1131,228
DA:1132,228
DA:1134,228
DA:1247,844
DA:1248,844
DA:1339,2314
DA:1341,2314
DA:1342,2314
DA:1343,2314
DA:1344,2314
DA:1349,1311
DA:1351,1311
DA:1352,1311
DA:1353,1311
DA:1354,1311
DA:1408,228
DA:1411,228
DA:1412,456
DA:1413,228
DA:1455,321
DA:1457,321
DA:1459,321
DA:1461,321
DA:1462,321
DA:1465,963
DA:1469,642
DA:1502,1638
DA:1504,1638
DA:1505,0
DA:1507,1638
DA:1508,1638
DA:1516,1015
DA:1518,1015
DA:1519,1015
DA:1520,1015
LF:115
LH:112
end_of_record
SF:/usr/include/c++/7/bits/vector.tcc
FN:458,_ZNSt6vectorImSaImEE14_M_fill_insertEN9__gnu_cxx17__normal_iteratorIPmS1_EEmRKm
FN:554,_ZNSt6vectorIhSaIhEE17_M_default_appendEm
FN:630,_ZNSt6vectorIhSaIhEE15_M_range_insertIPKhEEvN9__gnu_cxx17__normal_iteratorIPhS1_EET_S9_St20forward_iterator_tag
FNDA:844,_ZNSt6vectorImSaImEE14_M_fill_insertEN9__gnu_cxx17__normal_iteratorIPmS1_EEmRKm
FNDA:889,_ZNSt6vectorIhSaIhEE17_M_default_appendEm
FNDA:228,_ZNSt6vectorIhSaIhEE15_M_range_insertIPKhEEvN9__gnu_cxx17__normal_iteratorIPhS1_EET_S9_St20forward_iterator_tag
FNF:3
FNH:3
DA:458,844
DA:461,844
DA:463,1688
DA:464,844
DA:469,642
DA:470,321
DA:472,321
DA:473,321
DA:474,321
DA:476,0
DA:479,0
DA:480,0
DA:481,0
DA:483,0
DA:488,321
DA:489,321
DA:492,321
DA:493,321
DA:495,321
DA:496,321
DA:497,321
DA:502,523
DA:504,523
DA:505,523
DA:506,523
DA:510,523
DA:512,523
DA:513,523
DA:515,523
DA:517,523
DA:518,523
DA:520,523
DA:522,523
DA:524,523
DA:525,523
DA:527,0
DA:529,0
DA:530,0
DA:531,0
DA:532,0
DA:534,0
DA:535,0
DA:536,0
DA:537,0
DA:539,523
DA:540,523
DA:541,1046
DA:542,523
DA:543,523
DA:544,523
DA:545,523
DA:546,523
DA:549,844
DA:554,889
DA:557,889
DA:559,1778
DA:560,889
DA:562,0
DA:563,0
DA:564,0
DA:568,889
DA:570,889
DA:571,889
DA:572,889
DA:575,889
DA:576,889
DA:577,889
DA:578,889
DA:580,889
DA:582,0
DA:584,0
DA:585,0
DA:586,0
DA:587,0
DA:588,0
DA:590,889
DA:591,889
DA:592,1778
DA:593,889
DA:594,889
DA:595,889
DA:596,889
DA:597,889
DA:600,889
DA:630,228
DA:634,228
DA:636,226
DA:637,452
DA:638,226
DA:640,0
DA:641,0
DA:642,0
DA:644,0
DA:647,0
DA:648,0
DA:649,0
DA:651,0
DA:655,0
DA:656,0
DA:657,0
DA:659,0
DA:660,0
DA:661,0
DA:664,0
DA:665,0
DA:666,0
DA:671,226
DA:673,226
DA:674,226
DA:677,226
DA:679,226
DA:680,226
DA:681,226
DA:684,226
DA:685,226
DA:687,226
DA:688,226
DA:690,0
DA:692,0
DA:693,0
DA:694,0
DA:695,0
DA:697,226
DA:698,226
DA:699,452
DA:700,226
DA:701,226
DA:702,226
DA:703,226
DA:704,226
DA:707,228
LF:131
LH:86
end_of_record
SF:/usr/include/c++/7/ext/alloc_traits.h
FN:94,_ZN9__gnu_cxx14__alloc_traitsISaIhEE17_S_select_on_copyERKS1_
FNDA:135,_ZN9__gnu_cxx14__alloc_traitsISaIhEE17_S_select_on_copyERKS1_
FNF:1
FNH:1
DA:94,135
DA:95,135
LF:2
LH:2
end_of_record
SF:/usr/include/c++/7/ext/new_allocator.h
FN:79,_ZN9__gnu_cxx13new_allocatorIhEC2Ev
FN:79,_ZN9__gnu_cxx13new_allocatorImEC2Ev
FN:81,_ZN9__gnu_cxx13new_allocatorIhEC2ERKS1_
FN:81,_ZN9__gnu_cxx13new_allocatorImEC2ERKS1_
FN:86,_ZN9__gnu_cxx13new_allocatorIhED2Ev
FN:86,_ZN9__gnu_cxx13new_allocatorImED2Ev
FN:99,_ZN9__gnu_cxx13new_allocatorIhE8allocateEmPKv
FN:99,_ZN9__gnu_cxx13new_allocatorImE8allocateEmPKv
FN:116,_ZN9__gnu_cxx13new_allocatorIhE10deallocateEPhm
FN:116,_ZN9__gnu_cxx13new_allocatorImE10deallocateEPmm
FN:129,_ZNK9__gnu_cxx13new_allocatorImE8max_sizeEv
FN:129,_ZNK9__gnu_cxx13new_allocatorIhE8max_sizeEv
FN:135,_ZN9__gnu_cxx13new_allocatorImE9constructImJRKmEEEvPT_DpOT0_
FN:140,_ZN9__gnu_cxx13new_allocatorImE7destroyImEEvPT_
FNDA:1290,_ZN9__gnu_cxx13new_allocatorIhEC2Ev
FNDA:4049,_ZN9__gnu_cxx13new_allocatorImEC2Ev
FNDA:3407,_ZN9__gnu_cxx13new_allocatorImEC2ERKS1_
FNDA:488,_ZN9__gnu_cxx13new_allocatorIhEC2ERKS1_
FNDA:1778,_ZN9__gnu_cxx13new_allocatorIhED2Ev
FNDA:7456,_ZN9__gnu_cxx13new_allocatorImED2Ev
FNDA:1461,_ZN9__gnu_cxx13new_allocatorIhE8allocateEmPKv
FNDA:3930,_ZN9__gnu_cxx13new_allocatorImE8allocateEmPKv
FNDA:1461,_ZN9__gnu_cxx13new_allocatorIhE10deallocateEPhm
FNDA:3930,_ZN9__gnu_cxx13new_allocatorImE10deallocateEPmm
FNDA:3691,_ZNK9__gnu_cxx13new_allocatorIhE8max_sizeEv
FNDA:4976,_ZNK9__gnu_cxx13new_allocatorImE8max_sizeEv
FNDA:321,_ZN9__gnu_cxx13new_allocatorImE9constructImJRKmEEEvPT_DpOT0_
FNDA:321,_ZN9__gnu_cxx13new_allocatorImE7destroyImEEvPT_
FNF:14
FNH:14
DA:79,5339
DA:81,3895
DA:86,9234
DA:99,5391
DA:101,5391
DA:102,0
DA:111,5391
DA:116,5391
DA:125,5391
DA:126,5391
DA:129,8667
DA:130,8667
DA:135,321
DA:136,321
DA:140,321
LF:15
LH:14
end_of_record
SF:/usr/include/c++/7/iostream
DA:74,276
LF:1
LH:1
end_of_record
SF:/usr/include/c++/7/new
FN:168,_ZnwmPv
FNDA:321,_ZnwmPv
FNF:1
FNH:1
DA:168,321
DA:169,321
LF:2
LH:2
end_of_record
SF:/home/irons/fuzzing/eval/2coverage/picopng-cov/picopng.cpp
FN:25,_Z9decodePNGRSt6vectorIhSaIhEERmS3_PKhmb
FN:60,_ZZ9decodePNGRSt6vectorIhSaIhEERmS3_PKhmbEN4Zlib17readBitFromStreamES3_S5_
FN:61,_ZZ9decodePNGRSt6vectorIhSaIhEERmS3_PKhmbEN4Zlib18readBitsFromStreamES3_S5_m
FN:67,_ZZ9decodePNGRSt6vectorIhSaIhEERmS3_PKhmbEN4Zlib11HuffmanTreeC2Ev
FN:67,_ZZ9decodePNGRSt6vectorIhSaIhEERmS3_PKhmbEN4Zlib11HuffmanTreeD2Ev
FN:69,_ZZ9decodePNGRSt6vectorIhSaIhEERmS3_PKhmbEN4Zlib11HuffmanTree15makeFromLengthsERKS_ImSaImEEm
FN:91,_ZZ9decodePNGRSt6vectorIhSaIhEERmS3_PKhmbENK4Zlib11HuffmanTree6decodeERbS3_S3_m
FN:102,_ZZ9decodePNGRSt6vectorIhSaIhEERmS3_PKhmbEN4Zlib8InflatorC2Ev
FN:102,_ZZ9decodePNGRSt6vectorIhSaIhEERmS3_PKhmbEN4Zlib8InflatorD2Ev
FN:105,_ZZ9decodePNGRSt6vectorIhSaIhEERmS3_PKhmbEN4Zlib8Inflator7inflateES2_RKS1_m
FN:121,_ZZ9decodePNGRSt6vectorIhSaIhEERmS3_PKhmbEN4Zlib8Inflator18generateFixedTreesERZ9decodePNGS2_S3_S3_S5_mbENS6_11HuffmanTreeES9_
FN:130,_ZZ9decodePNGRSt6vectorIhSaIhEERmS3_PKhmbEN4Zlib8Inflator19huffmanDecodeSymbolES5_S3_RKZ9decodePNGS2_S3_S3_S5_mbENS6_11HuffmanTreeEm
FN:140,_ZZ9decodePNGRSt6vectorIhSaIhEERmS3_PKhmbEN4Zlib8Inflator21getTreeInflateDynamicERZ9decodePNGS2_S3_S3_S5_mbENS6_11HuffmanTreeES9_S5_S3_m
FN:194,_ZZ9decodePNGRSt6vectorIhSaIhEERmS3_PKhmbEN4Zlib8Inflator19inflateHuffmanBlockES2_S5_S3_S3_mm
FN:223,_ZZ9decodePNGRSt6vectorIhSaIhEERmS3_PKhmbEN4Zlib8Inflator20inflateNoCompressionES2_S5_S3_S3_m
FN:236,_ZZ9decodePNGRSt6vectorIhSaIhEERmS3_PKhmbEN4Zlib10decompressES2_RKS1_
FN:248,_ZZ9decodePNGRSt6vectorIhSaIhEERmS3_PKhmbEN3PNGD2Ev
FN:248,_ZZ9decodePNGRSt6vectorIhSaIhEERmS3_PKhmbEN3PNGC2Ev
FN:250,_ZZ9decodePNGRSt6vectorIhSaIhEERmS3_PKhmbEN3PNG4InfoD2Ev
FN:250,_ZZ9decodePNGRSt6vectorIhSaIhEERmS3_PKhmbEN3PNG4InfoC2Ev
FN:257,_ZZ9decodePNGRSt6vectorIhSaIhEERmS3_PKhmbEN3PNG6decodeES2_S5_mb
FN:368,_ZZ9decodePNGRSt6vectorIhSaIhEERmS3_PKhmbEN3PNG13readPngHeaderES5_m
FN:380,_ZZ9decodePNGRSt6vectorIhSaIhEERmS3_PKhmbEN3PNG16unFilterScanlineEPhS5_S5_mmm
FN:420,_ZZ9decodePNGRSt6vectorIhSaIhEERmS3_PKhmbEN3PNG9adam7PassEPhS7_S7_S5_mmmmmmmm
FN:438,_ZZ9decodePNGRSt6vectorIhSaIhEERmS3_PKhmbEN3PNG25readBitFromReversedStreamES3_S5_
FN:439,_ZZ9decodePNGRSt6vectorIhSaIhEERmS3_PKhmbEN3PNG26readBitsFromReversedStreamES3_S5_m
FN:445,_ZZ9decodePNGRSt6vectorIhSaIhEERmS3_PKhmbEN3PNG22setBitOfReversedStreamES3_Phm
FN:446,_ZZ9decodePNGRSt6vectorIhSaIhEERmS3_PKhmbEN3PNG12read32bitIntES5_
FN:447,_ZZ9decodePNGRSt6vectorIhSaIhEERmS3_PKhmbEN3PNG18checkColorValidityEmm
FN:454,_ZZ9decodePNGRSt6vectorIhSaIhEERmS3_PKhmbEN3PNG6getBppERKZ9decodePNGS2_S3_S3_S5_mbENS6_4InfoE
FN:460,_ZZ9decodePNGRSt6vectorIhSaIhEERmS3_PKhmbEN3PNG7convertES2_S5_RZ9decodePNGS2_S3_S3_S5_mbENS6_4InfoEmm
FN:525,_ZZ9decodePNGRSt6vectorIhSaIhEERmS3_PKhmbEN3PNG14paethPredictorEsss
FN:545,_Z8loadFileRSt6vectorIhSaIhEERKNSt7__cxx1112basic_stringIcSt11char_traitsIcESaIcEEE
FN:563,main
FN:579,_GLOBAL__sub_I__Z9decodePNGRSt6vectorIhSaIhEERmS3_PKhmb
FN:579,_Z41__static_initialization_and_destruction_0ii
FNDA:276,_Z9decodePNGRSt6vectorIhSaIhEERmS3_PKhmb
FNDA:160370,_ZZ9decodePNGRSt6vectorIhSaIhEERmS3_PKhmbEN4Zlib17readBitFromStreamES3_S5_
FNDA:18803,_ZZ9decodePNGRSt6vectorIhSaIhEERmS3_PKhmbEN4Zlib18readBitsFromStreamES3_S5_m
FNDA:642,_ZZ9decodePNGRSt6vectorIhSaIhEERmS3_PKhmbEN4Zlib11HuffmanTreeD2Ev
FNDA:642,_ZZ9decodePNGRSt6vectorIhSaIhEERmS3_PKhmbEN4Zlib11HuffmanTreeC2Ev
FNDA:844,_ZZ9decodePNGRSt6vectorIhSaIhEERmS3_PKhmbEN4Zlib11HuffmanTree15makeFromLengthsERKS_ImSaImEEm
FNDA:124457,_ZZ9decodePNGRSt6vectorIhSaIhEERmS3_PKhmbENK4Zlib11HuffmanTree6decodeERbS3_S3_m
FNDA:214,_ZZ9decodePNGRSt6vectorIhSaIhEERmS3_PKhmbEN4Zlib8InflatorD2Ev
FNDA:214,_ZZ9decodePNGRSt6vectorIhSaIhEERmS3_PKhmbEN4Zlib8InflatorC2Ev
FNDA:204,_ZZ9decodePNGRSt6vectorIhSaIhEERmS3_PKhmbEN4Zlib8Inflator7inflateES2_RKS1_m
FNDA:64,_ZZ9decodePNGRSt6vectorIhSaIhEERmS3_PKhmbEN4Zlib8Inflator18generateFixedTreesERZ9decodePNGS2_S3_S3_S5_mbENS6_11HuffmanTreeES9_
FNDA:87169,_ZZ9decodePNGRSt6vectorIhSaIhEERmS3_PKhmbEN4Zlib8Inflator19huffmanDecodeSymbolES5_S3_RKZ9decodePNGS2_S3_S3_S5_mbENS6_11HuffmanTreeEm
FNDA:249,_ZZ9decodePNGRSt6vectorIhSaIhEERmS3_PKhmbEN4Zlib8Inflator21getTreeInflateDynamicERZ9decodePNGS2_S3_S3_S5_mbENS6_11HuffmanTreeES9_S5_S3_m
FNDA:313,_ZZ9decodePNGRSt6vectorIhSaIhEERmS3_PKhmbEN4Zlib8Inflator19inflateHuffmanBlockES2_S5_S3_S3_mm
FNDA:232,_ZZ9decodePNGRSt6vectorIhSaIhEERmS3_PKhmbEN4Zlib8Inflator20inflateNoCompressionES2_S5_S3_S3_m
FNDA:214,_ZZ9decodePNGRSt6vectorIhSaIhEERmS3_PKhmbEN4Zlib10decompressES2_RKS1_
FNDA:276,_ZZ9decodePNGRSt6vectorIhSaIhEERmS3_PKhmbEN3PNGD2Ev
FNDA:276,_ZZ9decodePNGRSt6vectorIhSaIhEERmS3_PKhmbEN3PNGC2Ev
FNDA:276,_ZZ9decodePNGRSt6vectorIhSaIhEERmS3_PKhmbEN3PNG4InfoD2Ev
FNDA:276,_ZZ9decodePNGRSt6vectorIhSaIhEERmS3_PKhmbEN3PNG4InfoC2Ev
FNDA:276,_ZZ9decodePNGRSt6vectorIhSaIhEERmS3_PKhmbEN3PNG6decodeES2_S5_mb
FNDA:276,_ZZ9decodePNGRSt6vectorIhSaIhEERmS3_PKhmbEN3PNG13readPngHeaderES5_m
FNDA:6847,_ZZ9decodePNGRSt6vectorIhSaIhEERmS3_PKhmbEN3PNG16unFilterScanlineEPhS5_S5_mmm
FNDA:7,_ZZ9decodePNGRSt6vectorIhSaIhEERmS3_PKhmbEN3PNG9adam7PassEPhS7_S7_S5_mmmmmmmm
FNDA:1088,_ZZ9decodePNGRSt6vectorIhSaIhEERmS3_PKhmbEN3PNG25readBitFromReversedStreamES3_S5_
FNDA:256,_ZZ9decodePNGRSt6vectorIhSaIhEERmS3_PKhmbEN3PNG26readBitsFromReversedStreamES3_S5_m
FNDA:576,_ZZ9decodePNGRSt6vectorIhSaIhEERmS3_PKhmbEN3PNG22setBitOfReversedStreamES3_Phm
FNDA:2628,_ZZ9decodePNGRSt6vectorIhSaIhEERmS3_PKhmbEN3PNG12read32bitIntES5_
FNDA:250,_ZZ9decodePNGRSt6vectorIhSaIhEERmS3_PKhmbEN3PNG18checkColorValidityEmm
FNDA:214,_ZZ9decodePNGRSt6vectorIhSaIhEERmS3_PKhmbEN3PNG6getBppERKZ9decodePNGS2_S3_S3_S5_mbENS6_4InfoE
FNDA:135,_ZZ9decodePNGRSt6vectorIhSaIhEERmS3_PKhmbEN3PNG7convertES2_S5_RZ9decodePNGS2_S3_S3_S5_mbENS6_4InfoEmm
FNDA:644,_ZZ9decodePNGRSt6vectorIhSaIhEERmS3_PKhmbEN3PNG14paethPredictorEsss
FNDA:276,_Z8loadFileRSt6vectorIhSaIhEERKNSt7__cxx1112basic_stringIcSt11char_traitsIcESaIcEEE
FNDA:276,main
FNDA:276,_GLOBAL__sub_I__Z9decodePNGRSt6vectorIhSaIhEERmS3_PKhmb
FNDA:276,_Z41__static_initialization_and_destruction_0ii
FNF:36
FNH:36
DA:25,276
DA:60,160370
DA:61,18803
DA:63,18803
DA:64,18803
DA:65,18803
DA:67,1284
DA:69,844
DA:71,844
DA:72,1688
DA:73,844
DA:74,844
DA:75,844
DA:76,844
DA:77,100807
DA:78,283789
DA:80,183826
DA:81,183826
DA:82,183820
DA:84,49712
DA:85,24080
DA:87,134108
DA:89,838
DA:91,124457
DA:93,124457
DA:94,124457
DA:95,124453
DA:96,124453
DA:97,124453
DA:98,124453
DA:102,428
DA:105,204
DA:107,204
DA:108,204
DA:109,204
DA:110,1294
DA:112,549
DA:113,547
DA:114,547
DA:115,547
DA:116,545
DA:117,313
DA:119,202
DA:121,64
DA:123,128
DA:124,64
DA:125,64
DA:126,64
DA:127,64
DA:128,64
DA:130,87169
DA:133,87169
DA:135,161751
DA:136,124457
DA:137,124453
DA:140,249
DA:142,482
DA:143,249
DA:144,249
DA:145,249
DA:146,249
DA:147,482
DA:148,249
DA:149,249
DA:150,244
DA:151,11704
DA:153,5740
DA:154,5737
DA:155,1692
DA:157,146
DA:158,146
DA:160,146
DA:161,25
DA:162,717
DA:164,571
DA:165,571
DA:168,1546
DA:170,618
DA:171,617
DA:172,3893
DA:174,3278
DA:175,3276
DA:178,928
DA:180,928
DA:181,927
DA:182,61912
DA:184,60988
DA:185,60985
DA:188,0
DA:190,234
DA:191,234
DA:192,233
DA:194,313
DA:196,313
DA:197,249
DA:200,75722
DA:201,75423
DA:202,75138
DA:204,69129
DA:205,69129
DA:207,6009
DA:209,6009
DA:210,6009
DA:211,6004
DA:212,6004
DA:213,6002
DA:214,6002
DA:215,6002
DA:216,5999
DA:217,5999
DA:218,5999
DA:219,5999
DA:221,75128
DA:223,1268
DA:225,1268
DA:226,232
DA:227,232
DA:228,231
DA:229,231
DA:230,230
DA:231,230
DA:232,230
DA:233,230
DA:236,214
DA:238,428
DA:239,214
DA:240,211
DA:241,207
DA:242,207
DA:243,205
DA:244,204
DA:245,204
DA:248,552
DA:250,552
DA:257,276
DA:259,276
DA:260,416
DA:261,276
DA:262,244
DA:263,380
DA:264,244
DA:265,244
DA:266,4420
DA:268,2118
DA:269,2114
DA:270,2114
DA:271,2110
DA:272,2101
DA:274,228
DA:275,228
DA:277,1873
DA:278,1659
DA:280,92
DA:281,92
DA:282,92
DA:283,8405
DA:285,8313
DA:286,8313
DA:287,92
DA:289,1567
DA:291,91
DA:292,91
DA:294,91
DA:295,91
DA:297,0
DA:299,0
DA:300,0
DA:302,0
DA:304,0
DA:305,0
DA:306,0
DA:307,0
DA:308,0
DA:310,0
DA:314,1476
DA:315,1463
DA:316,1463
DA:318,2088
DA:320,214
DA:321,350
DA:323,214
DA:324,172
DA:325,172
DA:326,172
DA:327,172
DA:329,171
DA:330,171
DA:331,6954
DA:333,6820
DA:334,6820
DA:335,6820
DA:336,6785
DA:340,3
DA:341,20
DA:343,19
DA:344,19
DA:345,20
DA:346,18
DA:347,18
DA:353,1
DA:354,1
DA:355,1
DA:356,1
DA:357,1
DA:358,2
DA:359,8
DA:360,7
DA:362,136
DA:364,270
DA:365,135
DA:368,276
DA:370,276
DA:371,270
DA:372,262
DA:373,257
DA:374,257
DA:375,257
DA:376,252
DA:377,251
DA:378,250
DA:380,6847
DA:382,6847
DA:384,6603
DA:385,71
DA:386,71
DA:387,71
DA:388,71
DA:389,52
DA:390,52
DA:391,2
DA:392,52
DA:393,37
DA:394,37
DA:396,35
DA:397,35
DA:401,2
DA:402,2
DA:404,37
DA:405,45
DA:406,45
DA:408,39
DA:409,39
DA:413,6
DA:414,6
DA:416,45
DA:417,39
DA:420,7
DA:422,7
DA:423,7
DA:424,8
DA:426,8
DA:427,8
DA:428,7
DA:429,6
DA:430,0
DA:432,0
DA:433,0
DA:435,1
DA:438,1088
DA:439,256
DA:441,256
DA:442,256
DA:443,256
DA:445,576
DA:446,2628
DA:447,250
DA:449,250
DA:450,114
DA:451,97
DA:452,3
DA:454,214
DA:456,214
DA:457,105
DA:458,99
DA:460,135
DA:462,135
DA:463,135
DA:464,135
DA:465,135
DA:466,161043
DA:468,161040
DA:469,161040
DA:470,3
DA:471,132
DA:472,8078949
DA:474,8078872
DA:475,8078872
DA:476,77
DA:477,55
DA:478,3656
DA:480,3626
DA:481,3606
DA:482,30
DA:483,5
DA:484,53762
DA:486,53760
DA:487,53760
DA:488,2
DA:489,3
DA:490,3
DA:491,1
DA:493,0
DA:494,0
DA:495,1
DA:496,2
DA:497,1
DA:499,0
DA:500,0
DA:501,1
DA:502,1
DA:503,0
DA:505,0
DA:506,0
DA:507,0
DA:508,1
DA:509,1
DA:510,257
DA:512,256
DA:513,256
DA:514,256
DA:515,1
DA:516,0
DA:517,0
DA:519,0
DA:520,0
DA:521,0
DA:523,115
DA:525,644
DA:527,644
DA:528,644
DA:531,552
DA:532,276
DA:533,552
DA:545,276
DA:547,552
DA:550,276
DA:551,276
DA:552,276
DA:555,276
DA:557,276
DA:558,276
DA:560,0
DA:561,276
DA:563,276
DA:565,276
DA:568,552
DA:569,276
DA:571,276
DA:574,276
DA:578,276
DA:579,1104
LF:351
LH:323
end_of_record
