TN:
SF:/usr/include/c++/7/bits/alloc_traits.h
FN:435,_ZNSt16allocator_traitsISaImEE8allocateERS0_m
FN:435,_ZNSt16allocator_traitsISaIhEE8allocateERS0_m
FN:461,_ZNSt16allocator_traitsISaIhEE10deallocateERS0_Phm
FN:461,_ZNSt16allocator_traitsISaImEE10deallocateERS0_Pmm
FN:474,_ZNSt16allocator_traitsISaImEE9constructImJRKmEEEvRS0_PT_DpOT0_
FN:486,_ZNSt16allocator_traitsISaImEE7destroyImEEvRS0_PT_
FN:495,_ZNSt16allocator_traitsISaImEE8max_sizeERKS0_
FN:495,_ZNSt16allocator_traitsISaIhEE8max_sizeERKS0_
FN:504,_ZNSt16allocator_traitsISaIhEE37select_on_container_copy_constructionERKS0_
FNDA:2818,_ZNSt16allocator_traitsISaIhEE8allocateERS0_m
FNDA:5149,_ZNSt16allocator_traitsISaImEE8allocateERS0_m
FNDA:2818,_ZNSt16allocator_traitsISaIhEE10deallocateERS0_Phm
FNDA:5149,_ZNSt16allocator_traitsISaImEE10deallocateERS0_Pmm
FNDA:60,_ZNSt16allocator_traitsISaImEE9constructImJRKmEEEvRS0_PT_DpOT0_
FNDA:60,_ZNSt16allocator_traitsISaImEE7destroyImEEvRS0_PT_
FNDA:3686,_ZNSt16allocator_traitsISaIhEE8max_sizeERKS0_
FNDA:1898,_ZNSt16allocator_traitsISaImEE8max_sizeERKS0_
FNDA:249,_ZNSt16allocator_traitsISaIhEE37select_on_container_copy_constructionERKS0_
FNF:9
FNH:9
DA:435,7967
DA:436,7967
DA:461,7967
DA:462,7967
DA:474,60
DA:475,60
DA:486,60
DA:487,60
DA:495,5584
DA:496,5584
DA:504,249
DA:505,249
LF:12
LH:12
end_of_record
SF:/usr/include/c++/7/bits/allocator.h
FN:131,_ZNSaIhEC2Ev
FN:131,_ZNSaImEC2Ev
FN:133,_ZNSaIhEC2ERKS_
FN:133,_ZNSaImEC2ERKS_
FN:139,_ZNSaImED2Ev
FN:139,_ZNSaIhED2Ev
FNDA:3505,_ZNSaIhEC2Ev
FNDA:5451,_ZNSaImEC2Ev
FNDA:4200,_ZNSaImEC2ERKS_
FNDA:1224,_ZNSaIhEC2ERKS_
FNDA:4729,_ZNSaIhED2Ev
FNDA:9651,_ZNSaImED2Ev
FNF:6
FNH:6
DA:131,8956
DA:133,5424
DA:134,5424
DA:139,14380
LF:4
LH:4
end_of_record
SF:/usr/include/c++/7/bits/cpp_type_traits.h
FN:408,_ZSt12__miter_baseIPKhET_S2_
FN:408,_ZSt12__miter_baseIN9__gnu_cxx17__normal_iteratorIPKhSt6vectorIhSaIhEEEEET_S8_
FN:408,_ZSt12__miter_baseIPhET_S1_
FN:408,_ZSt12__miter_baseIPmET_S1_
FNDA:498,_ZSt12__miter_baseIN9__gnu_cxx17__normal_iteratorIPKhSt6vectorIhSaIhEEEEET_S8_
FNDA:2336,_ZSt12__miter_baseIPKhET_S2_
FNDA:5364,_ZSt12__miter_baseIPhET_S1_
FNDA:3916,_ZSt12__miter_baseIPmET_S1_
FNF:4
FNH:4
DA:408,12114
DA:409,12114
LF:2
LH:2
end_of_record
SF:/usr/include/c++/7/bits/ios_base.h
FN:83,_ZStanSt13_Ios_FmtflagsS_
FN:87,_ZStorSt13_Ios_FmtflagsS_
FN:95,_ZStcoSt13_Ios_Fmtflags
FN:99,_ZStoRRSt13_Ios_FmtflagsS_
FN:103,_ZStaNRSt13_Ios_FmtflagsS_
FN:129,_ZStorSt13_Ios_OpenmodeS_
FN:663,_ZNSt8ios_base4setfESt13_Ios_FmtflagsS0_
FN:1024,_ZSt3hexRSt8ios_base
FNDA:544,_ZStanSt13_Ios_FmtflagsS_
FNDA:272,_ZStorSt13_Ios_FmtflagsS_
FNDA:272,_ZStcoSt13_Ios_Fmtflags
FNDA:272,_ZStoRRSt13_Ios_FmtflagsS_
FNDA:272,_ZStaNRSt13_Ios_FmtflagsS_
FNDA:1396,_ZStorSt13_Ios_OpenmodeS_
FNDA:272,_ZNSt8ios_base4setfESt13_Ios_FmtflagsS0_
FNDA:272,_ZSt3hexRSt8ios_base
FNF:8
FNH:8
DA:83,544
DA:84,544
DA:87,272
DA:88,272
DA:95,272
DA:96,272
DA:99,272
DA:100,272
DA:103,272
DA:104,272
DA:129,1396
DA:130,1396
DA:663,272
DA:665,272
DA:666,272
DA:667,272
DA:668,272
DA:1024,272
DA:1026,272
DA:1027,272
LF:20
LH:20
end_of_record
SF:/usr/include/c++/7/bits/move.h
FN:47,_ZSt11__addressofImEPT_RS0_
FN:73,_ZSt7forwardIRKmEOT_RNSt16remove_referenceIS2_E4typeE
FN:137,_ZSt9addressofImEPT_RS0_
FNDA:120,_ZSt11__addressofImEPT_RS0_
FNDA:180,_ZSt7forwardIRKmEOT_RNSt16remove_referenceIS2_E4typeE
FNDA:120,_ZSt9addressofImEPT_RS0_
FNF:3
FNH:3
DA:47,120
DA:48,120
DA:73,180
DA:74,180
DA:137,120
DA:138,120
LF:6
LH:6
end_of_record
SF:/usr/include/c++/7/bits/postypes.h
FN:137,_ZNKSt4fposI11__mbstate_tEcvlEv
FNDA:1396,_ZNKSt4fposI11__mbstate_tEcvlEv
FNF:1
FNH:1
DA:137,1396
LF:1
LH:1
end_of_record
SF:/usr/include/c++/7/bits/ptr_traits.h
FN:141,_ZNSt14pointer_traitsIPmE10pointer_toERm
FNDA:120,_ZNSt14pointer_traitsIPmE10pointer_toERm
FNF:1
FNH:1
DA:141,120
DA:142,120
LF:2
LH:2
end_of_record
SF:/usr/include/c++/7/bits/stl_algobase.h
FN:219,_ZSt3maxImERKT_S2_S2_
FN:277,_ZSt12__niter_baseIPhET_S1_
FN:277,_ZSt12__niter_baseIPKhET_S2_
FN:277,_ZSt12__niter_baseIPmET_S1_
FN:357,_ZNSt11__copy_moveILb0ELb1ESt26random_access_iterator_tagE8__copy_mIhEEPT_PKS3_S6_S4_
FN:357,_ZNSt11__copy_moveILb1ELb1ESt26random_access_iterator_tagE8__copy_mImEEPT_PKS3_S6_S4_
FN:357,_ZNSt11__copy_moveILb1ELb1ESt26random_access_iterator_tagE8__copy_mIhEEPT_PKS3_S6_S4_
FN:375,_ZSt13__copy_move_aILb0EPKhPhET1_T0_S4_S3_
FN:375,_ZSt13__copy_move_aILb1EPhS0_ET1_T0_S2_S1_
FN:375,_ZSt13__copy_move_aILb1EPmS0_ET1_T0_S2_S1_
FN:420,_ZSt14__copy_move_a2ILb0EPKhN9__gnu_cxx17__normal_iteratorIPhSt6vectorIhSaIhEEEEET1_T0_SA_S9_
FN:420,_ZSt14__copy_move_a2ILb1EPmS0_ET1_T0_S2_S1_
FN:420,_ZSt14__copy_move_a2ILb1EPhS0_ET1_T0_S2_S1_
FN:420,_ZSt14__copy_move_a2ILb0EN9__gnu_cxx17__normal_iteratorIPKhSt6vectorIhSaIhEEEEPhET1_T0_SA_S9_
FN:420,_ZSt14__copy_move_a2ILb0EPKhPhET1_T0_S4_S3_
FN:446,_ZSt4copyISt13move_iteratorIPmES1_ET0_T_S4_S3_
FN:446,_ZSt4copyISt13move_iteratorIPhES1_ET0_T_S4_S3_
FN:446,_ZSt4copyIPKhPhET0_T_S4_S3_
FN:446,_ZSt4copyIN9__gnu_cxx17__normal_iteratorIPKhSt6vectorIhSaIhEEEEPhET0_T_SA_S9_
FN:446,_ZSt4copyIPKhN9__gnu_cxx17__normal_iteratorIPhSt6vectorIhSaIhEEEEET0_T_SA_S9_
FN:559,_ZNSt20__copy_move_backwardILb1ELb1ESt26random_access_iterator_tagE13__copy_move_bImEEPT_PKS3_S6_S4_
FN:559,_ZNSt20__copy_move_backwardILb1ELb1ESt26random_access_iterator_tagE13__copy_move_bIhEEPT_PKS3_S6_S4_
FN:577,_ZSt22__copy_move_backward_aILb1EPhS0_ET1_T0_S2_S1_
FN:577,_ZSt22__copy_move_backward_aILb1EPmS0_ET1_T0_S2_S1_
FN:595,_ZSt23__copy_move_backward_a2ILb1EPmS0_ET1_T0_S2_S1_
FN:595,_ZSt23__copy_move_backward_a2ILb1EPhS0_ET1_T0_S2_S1_
FN:658,_ZSt13move_backwardIPmS0_ET0_T_S2_S1_
FN:658,_ZSt13move_backwardIPhS0_ET0_T_S2_S1_
FN:691,_ZSt8__fill_aIPmmEN9__gnu_cxx11__enable_ifIXsrSt11__is_scalarIT0_E7__valueEvE6__typeET_S8_RKS4_
FN:703,_ZSt8__fill_aIhEN9__gnu_cxx11__enable_ifIXsrSt9__is_byteIT_E7__valueEvE6__typeEPS3_S7_RKS3_
FN:724,_ZSt4fillIPmmEvT_S1_RKT0_
FN:749,_ZSt10__fill_n_aIPmmmEN9__gnu_cxx11__enable_ifIXsrSt11__is_scalarIT1_E7__valueET_E6__typeES6_T0_RKS4_
FN:761,_ZSt10__fill_n_aImhEN9__gnu_cxx11__enable_ifIXsrSt9__is_byteIT0_E7__valueEPS3_E6__typeES5_T_RKS3_
FN:784,_ZSt6fill_nIPhmhET_S1_T0_RKT1_
FN:784,_ZSt6fill_nIPmmmET_S1_T0_RKT1_
FNDA:2792,_ZSt3maxImERKT_S2_S2_
FNDA:2336,_ZSt12__niter_baseIPKhET_S2_
FNDA:11193,_ZSt12__niter_baseIPhET_S1_
FNDA:11203,_ZSt12__niter_baseIPmET_S1_
FNDA:2682,_ZNSt11__copy_moveILb1ELb1ESt26random_access_iterator_tagE8__copy_mIhEEPT_PKS3_S6_S4_
FNDA:1958,_ZNSt11__copy_moveILb1ELb1ESt26random_access_iterator_tagE8__copy_mImEEPT_PKS3_S6_S4_
FNDA:1417,_ZNSt11__copy_moveILb0ELb1ESt26random_access_iterator_tagE8__copy_mIhEEPT_PKS3_S6_S4_
FNDA:2682,_ZSt13__copy_move_aILb1EPhS0_ET1_T0_S2_S1_
FNDA:1958,_ZSt13__copy_move_aILb1EPmS0_ET1_T0_S2_S1_
FNDA:1417,_ZSt13__copy_move_aILb0EPKhPhET1_T0_S4_S3_
FNDA:839,_ZSt14__copy_move_a2ILb0EPKhPhET1_T0_S4_S3_
FNDA:2682,_ZSt14__copy_move_a2ILb1EPhS0_ET1_T0_S2_S1_
FNDA:1958,_ZSt14__copy_move_a2ILb1EPmS0_ET1_T0_S2_S1_
FNDA:249,_ZSt14__copy_move_a2ILb0EN9__gnu_cxx17__normal_iteratorIPKhSt6vectorIhSaIhEEEEPhET1_T0_SA_S9_
FNDA:329,_ZSt14__copy_move_a2ILb0EPKhN9__gnu_cxx17__normal_iteratorIPhSt6vectorIhSaIhEEEEET1_T0_SA_S9_
FNDA:839,_ZSt4copyIPKhPhET0_T_S4_S3_
FNDA:2682,_ZSt4copyISt13move_iteratorIPhES1_ET0_T_S4_S3_
FNDA:1958,_ZSt4copyISt13move_iteratorIPmES1_ET0_T_S4_S3_
FNDA:249,_ZSt4copyIN9__gnu_cxx17__normal_iteratorIPKhSt6vectorIhSaIhEEEEPhET0_T_SA_S9_
FNDA:329,_ZSt4copyIPKhN9__gnu_cxx17__normal_iteratorIPhSt6vectorIhSaIhEEEEET0_T_SA_S9_
FNDA:0,_ZNSt20__copy_move_backwardILb1ELb1ESt26random_access_iterator_tagE13__copy_move_bIhEEPT_PKS3_S6_S4_
FNDA:0,_ZNSt20__copy_move_backwardILb1ELb1ESt26random_access_iterator_tagE13__copy_move_bImEEPT_PKS3_S6_S4_
FNDA:0,_ZSt22__copy_move_backward_aILb1EPhS0_ET1_T0_S2_S1_
FNDA:0,_ZSt22__copy_move_backward_aILb1EPmS0_ET1_T0_S2_S1_
FNDA:0,_ZSt23__copy_move_backward_a2ILb1EPhS0_ET1_T0_S2_S1_
FNDA:0,_ZSt23__copy_move_backward_a2ILb1EPmS0_ET1_T0_S2_S1_
FNDA:0,_ZSt13move_backwardIPhS0_ET0_T_S2_S1_
FNDA:0,_ZSt13move_backwardIPmS0_ET0_T_S2_S1_
FNDA:60,_ZSt8__fill_aIPmmEN9__gnu_cxx11__enable_ifIXsrSt11__is_scalarIT0_E7__valueEvE6__typeET_S8_RKS4_
FNDA:2059,_ZSt8__fill_aIhEN9__gnu_cxx11__enable_ifIXsrSt9__is_byteIT_E7__valueEvE6__typeEPS3_S7_RKS3_
FNDA:60,_ZSt4fillIPmmEvT_S1_RKT0_
FNDA:5209,_ZSt10__fill_n_aIPmmmEN9__gnu_cxx11__enable_ifIXsrSt11__is_scalarIT1_E7__valueET_E6__typeES6_T0_RKS4_
FNDA:2059,_ZSt10__fill_n_aImhEN9__gnu_cxx11__enable_ifIXsrSt9__is_byteIT0_E7__valueEPS3_E6__typeES5_T_RKS3_
FNDA:2059,_ZSt6fill_nIPhmhET_S1_T0_RKT1_
FNDA:5209,_ZSt6fill_nIPmmmET_S1_T0_RKT1_
FNF:35
FNH:27
DA:219,2792
DA:224,2792
DA:225,2656
DA:226,136
DA:277,24732
DA:278,24732
DA:357,6057
DA:366,6057
DA:367,6057
DA:368,1443
DA:369,6057
DA:375,6057
DA:380,6057
DA:386,6057
DA:420,6057
DA:422,6386
DA:424,6386
DA:446,6057
DA:455,6057
DA:456,6057
DA:559,0
DA:568,0
DA:569,0
DA:570,0
DA:571,0
DA:577,0
DA:582,0
DA:590,0
DA:595,0
DA:598,0
DA:599,0
DA:658,0
DA:668,0
DA:670,0
DA:691,60
DA:694,60
DA:695,60
DA:696,0
DA:697,60
DA:703,2059
DA:705,2059
DA:706,2059
DA:707,2059
DA:708,2059
DA:724,60
DA:731,60
DA:733,60
DA:749,5209
DA:751,5209
DA:752,554213
DA:753,554213
DA:754,549004
DA:755,5209
DA:761,2059
DA:763,2059
DA:764,2059
DA:784,7268
DA:789,7268
LF:58
LH:43
end_of_record
SF:/usr/include/c++/7/bits/stl_construct.h
FN:117,_ZNSt12_Destroy_auxILb1EE9__destroyIPhEEvT_S3_
FN:117,_ZNSt12_Destroy_auxILb1EE9__destroyIPmEEvT_S3_
FN:127,_ZSt8_DestroyIPmEvT_S1_
FN:127,_ZSt8_DestroyIPhEvT_S1_
FN:203,_ZSt8_DestroyIPmmEvT_S1_RSaIT0_E
FN:203,_ZSt8_DestroyIPhhEvT_S1_RSaIT0_E
FNDA:5838,_ZNSt12_Destroy_auxILb1EE9__destroyIPhEEvT_S3_
FNDA:7409,_ZNSt12_Destroy_auxILb1EE9__destroyIPmEEvT_S3_
FNDA:5838,_ZSt8_DestroyIPhEvT_S1_
FNDA:7409,_ZSt8_DestroyIPmEvT_S1_
FNDA:5838,_ZSt8_DestroyIPhhEvT_S1_RSaIT0_E
FNDA:7409,_ZSt8_DestroyIPmmEvT_S1_RSaIT0_E
FNF:6
FNH:6
DA:117,13247
DA:127,13247
DA:137,13247
DA:138,13247
DA:203,13247
DA:206,13247
DA:207,13247
LF:7
LH:7
end_of_record
SF:/usr/include/c++/7/bits/stl_iterator.h
FN:782,_ZN9__gnu_cxx17__normal_iteratorIPKhSt6vectorIhSaIhEEEC2ERKS2_
FN:782,_ZN9__gnu_cxx17__normal_iteratorIPhSt6vectorIhSaIhEEEC2ERKS1_
FN:782,_ZN9__gnu_cxx17__normal_iteratorIPmSt6vectorImSaImEEEC2ERKS1_
FN:787,_ZN9__gnu_cxx17__normal_iteratorIPKhSt6vectorIhSaIhEEEC2IPhEERKNS0_IT_NS_11__enable_ifIXsrSt10__are_sameIS9_S8_E7__valueES5_E6__typeEEE
FN:835,_ZNK9__gnu_cxx17__normal_iteratorIPhSt6vectorIhSaIhEEEplEl
FN:847,_ZNK9__gnu_cxx17__normal_iteratorIPKhSt6vectorIhSaIhEEE4baseEv
FN:847,_ZNK9__gnu_cxx17__normal_iteratorIPmSt6vectorImSaImEEE4baseEv
FN:847,_ZNK9__gnu_cxx17__normal_iteratorIPhSt6vectorIhSaIhEEE4baseEv
FN:869,_ZN9__gnu_cxxeqIPKhSt6vectorIhSaIhEEEEbRKNS_17__normal_iteratorIT_T0_EESB_
FN:965,_ZN9__gnu_cxxmiIPhSt6vectorIhSaIhEEEENS_17__normal_iteratorIT_T0_E15difference_typeERKS8_SB_
FN:965,_ZN9__gnu_cxxmiIPmSt6vectorImSaImEEEENS_17__normal_iteratorIT_T0_E15difference_typeERKS8_SB_
FN:965,_ZN9__gnu_cxxmiIPKhSt6vectorIhSaIhEEEENS_17__normal_iteratorIT_T0_E15difference_typeERKS9_SC_
FN:986,_ZSt12__niter_baseIPhSt6vectorIhSaIhEEET_N9__gnu_cxx17__normal_iteratorIS4_T0_EE
FN:986,_ZSt12__niter_baseIPKhSt6vectorIhSaIhEEET_N9__gnu_cxx17__normal_iteratorIS5_T0_EE
FN:1039,_ZNSt13move_iteratorIPhEC2ES0_
FN:1039,_ZNSt13move_iteratorIPmEC2ES0_
FN:1048,_ZNKSt13move_iteratorIPhE4baseEv
FN:1048,_ZNKSt13move_iteratorIPmE4baseEv
FN:1207,_ZSt18make_move_iteratorIPmESt13move_iteratorIT_ES2_
FN:1207,_ZSt18make_move_iteratorIPhESt13move_iteratorIT_ES2_
FN:1224,_ZSt32__make_move_if_noexcept_iteratorImSt13move_iteratorIPmEET0_PT_
FN:1224,_ZSt32__make_move_if_noexcept_iteratorIhSt13move_iteratorIPhEET0_PT_
FN:1244,_ZSt12__miter_baseIPmEDTcl12__miter_basecldtfp_4baseEEESt13move_iteratorIT_E
FN:1244,_ZSt12__miter_baseIPhEDTcl12__miter_basecldtfp_4baseEEESt13move_iteratorIT_E
FNDA:3235,_ZN9__gnu_cxx17__normal_iteratorIPKhSt6vectorIhSaIhEEEC2ERKS2_
FNDA:2018,_ZN9__gnu_cxx17__normal_iteratorIPmSt6vectorImSaImEEEC2ERKS1_
FNDA:4873,_ZN9__gnu_cxx17__normal_iteratorIPhSt6vectorIhSaIhEEEC2ERKS1_
FNDA:843,_ZN9__gnu_cxx17__normal_iteratorIPKhSt6vectorIhSaIhEEEC2IPhEERKNS0_IT_NS_11__enable_ifIXsrSt10__are_sameIS9_S8_E7__valueES5_E6__typeEEE
FNDA:1686,_ZNK9__gnu_cxx17__normal_iteratorIPhSt6vectorIhSaIhEEEplEl
FNDA:4078,_ZNK9__gnu_cxx17__normal_iteratorIPKhSt6vectorIhSaIhEEE4baseEv
FNDA:4036,_ZNK9__gnu_cxx17__normal_iteratorIPmSt6vectorImSaImEEE4baseEv
FNDA:3179,_ZNK9__gnu_cxx17__normal_iteratorIPhSt6vectorIhSaIhEEE4baseEv
FNDA:947,_ZN9__gnu_cxxeqIPKhSt6vectorIhSaIhEEEEbRKNS_17__normal_iteratorIT_T0_EESB_
FNDA:329,_ZN9__gnu_cxxmiIPhSt6vectorIhSaIhEEEENS_17__normal_iteratorIT_T0_E15difference_typeERKS8_SB_
FNDA:1009,_ZN9__gnu_cxxmiIPmSt6vectorImSaImEEEENS_17__normal_iteratorIT_T0_E15difference_typeERKS8_SB_
FNDA:843,_ZN9__gnu_cxxmiIPKhSt6vectorIhSaIhEEEENS_17__normal_iteratorIT_T0_E15difference_typeERKS9_SC_
FNDA:498,_ZSt12__niter_baseIPKhSt6vectorIhSaIhEEET_N9__gnu_cxx17__normal_iteratorIS5_T0_EE
FNDA:329,_ZSt12__niter_baseIPhSt6vectorIhSaIhEEET_N9__gnu_cxx17__normal_iteratorIS4_T0_EE
FNDA:5364,_ZNSt13move_iteratorIPhEC2ES0_
FNDA:3916,_ZNSt13move_iteratorIPmEC2ES0_
FNDA:5364,_ZNKSt13move_iteratorIPhE4baseEv
FNDA:3916,_ZNKSt13move_iteratorIPmE4baseEv
FNDA:658,_ZSt18make_move_iteratorIPhESt13move_iteratorIT_ES2_
FNDA:120,_ZSt18make_move_iteratorIPmESt13move_iteratorIT_ES2_
FNDA:4706,_ZSt32__make_move_if_noexcept_iteratorIhSt13move_iteratorIPhEET0_PT_
FNDA:3796,_ZSt32__make_move_if_noexcept_iteratorImSt13move_iteratorIPmEET0_PT_
FNDA:5364,_ZSt12__miter_baseIPhEDTcl12__miter_basecldtfp_4baseEEESt13move_iteratorIT_E
FNDA:3916,_ZSt12__miter_baseIPmEDTcl12__miter_basecldtfp_4baseEEESt13move_iteratorIT_E
FNF:24
FNH:24
DA:782,10126
DA:783,10126
DA:787,843
DA:791,843
DA:835,1686
DA:836,1686
DA:847,11293
DA:848,11293
DA:869,947
DA:872,947
DA:965,2181
DA:968,2181
DA:986,827
DA:987,827
DA:1039,9280
DA:1040,9280
DA:1048,9280
DA:1049,9280
DA:1207,778
DA:1208,778
DA:1224,8502
DA:1225,8502
DA:1244,9280
DA:1246,9280
LF:24
LH:24
end_of_record
SF:/usr/include/c++/7/bits/stl_iterator_base_funcs.h
FN:98,_ZSt10__distanceIPKhENSt15iterator_traitsIT_E15difference_typeES3_S3_St26random_access_iterator_tag
FN:138,_ZSt8distanceIPKhENSt15iterator_traitsIT_E15difference_typeES3_S3_
FN:174,_ZSt9__advanceIPKhlEvRT_T0_St26random_access_iterator_tag
FN:197,_ZSt7advanceIPKhmEvRT_T0_
FNDA:839,_ZSt10__distanceIPKhENSt15iterator_traitsIT_E15difference_typeES3_S3_St26random_access_iterator_tag
FNDA:839,_ZSt8distanceIPKhENSt15iterator_traitsIT_E15difference_typeES3_S3_
FNDA:329,_ZSt9__advanceIPKhlEvRT_T0_St26random_access_iterator_tag
FNDA:329,_ZSt7advanceIPKhmEvRT_T0_
FNF:4
FNH:4
DA:98,839
DA:104,839
DA:138,839
DA:141,839
DA:142,1678
DA:174,329
DA:180,329
DA:181,329
DA:197,329
DA:200,329
DA:201,329
DA:202,329
LF:12
LH:12
end_of_record
SF:/usr/include/c++/7/bits/stl_iterator_base_types.h
FN:205,_ZSt19__iterator_categoryIPKhENSt15iterator_traitsIT_E17iterator_categoryERKS3_
FNDA:2011,_ZSt19__iterator_categoryIPKhENSt15iterator_traitsIT_E17iterator_categoryERKS3_
FNF:1
FNH:1
DA:205,2011
DA:206,2011
LF:2
LH:2
end_of_record
SF:/usr/include/c++/7/bits/stl_uninitialized.h
FN:99,_ZNSt20__uninitialized_copyILb1EE13__uninit_copyIPKhPhEET0_T_S6_S5_
FN:99,_ZNSt20__uninitialized_copyILb1EE13__uninit_copyIN9__gnu_cxx17__normal_iteratorIPKhSt6vectorIhSaIhEEEEPhEET0_T_SC_SB_
FN:99,_ZNSt20__uninitialized_copyILb1EE13__uninit_copyISt13move_iteratorIPhES3_EET0_T_S6_S5_
FN:99,_ZNSt20__uninitialized_copyILb1EE13__uninit_copyISt13move_iteratorIPmES3_EET0_T_S6_S5_
FN:115,_ZSt18uninitialized_copyISt13move_iteratorIPmES1_ET0_T_S4_S3_
FN:115,_ZSt18uninitialized_copyIPKhPhET0_T_S4_S3_
FN:115,_ZSt18uninitialized_copyIN9__gnu_cxx17__normal_iteratorIPKhSt6vectorIhSaIhEEEEPhET0_T_SA_S9_
FN:115,_ZSt18uninitialized_copyISt13move_iteratorIPhES1_ET0_T_S4_S3_
FN:226,_ZNSt22__uninitialized_fill_nILb1EE15__uninit_fill_nIPmmmEET_S3_T0_RKT1_
FN:244,_ZSt20uninitialized_fill_nIPmmmET_S1_T0_RKT1_
FN:287,_ZSt22__uninitialized_copy_aISt13move_iteratorIPmES1_mET0_T_S4_S3_RSaIT1_E
FN:287,_ZSt22__uninitialized_copy_aIN9__gnu_cxx17__normal_iteratorIPKhSt6vectorIhSaIhEEEEPhhET0_T_SA_S9_RSaIT1_E
FN:287,_ZSt22__uninitialized_copy_aIPKhPhhET0_T_S4_S3_RSaIT1_E
FN:287,_ZSt22__uninitialized_copy_aISt13move_iteratorIPhES1_hET0_T_S4_S3_RSaIT1_E
FN:294,_ZSt22__uninitialized_move_aIPhS0_SaIhEET0_T_S3_S2_RT1_
FN:294,_ZSt22__uninitialized_move_aIPmS0_SaImEET0_T_S3_S2_RT1_
FN:305,_ZSt34__uninitialized_move_if_noexcept_aIPmS0_SaImEET0_T_S3_S2_RT1_
FN:305,_ZSt34__uninitialized_move_if_noexcept_aIPhS0_SaIhEET0_T_S3_S2_RT1_
FN:364,_ZSt24__uninitialized_fill_n_aIPmmmmET_S1_T0_RKT1_RSaIT2_E
FN:543,_ZNSt27__uninitialized_default_n_1ILb1EE18__uninit_default_nIPhmEET_S3_T0_
FN:543,_ZNSt27__uninitialized_default_n_1ILb1EE18__uninit_default_nIPmmEET_S3_T0_
FN:574,_ZSt25__uninitialized_default_nIPmmET_S1_T0_
FN:574,_ZSt25__uninitialized_default_nIPhmET_S1_T0_
FN:643,_ZSt27__uninitialized_default_n_aIPhmhET_S1_T0_RSaIT1_E
FN:643,_ZSt27__uninitialized_default_n_aIPmmmET_S1_T0_RSaIT1_E
FNDA:839,_ZNSt20__uninitialized_copyILb1EE13__uninit_copyIPKhPhEET0_T_S6_S5_
FNDA:2682,_ZNSt20__uninitialized_copyILb1EE13__uninit_copyISt13move_iteratorIPhES3_EET0_T_S6_S5_
FNDA:1958,_ZNSt20__uninitialized_copyILb1EE13__uninit_copyISt13move_iteratorIPmES3_EET0_T_S6_S5_
FNDA:249,_ZNSt20__uninitialized_copyILb1EE13__uninit_copyIN9__gnu_cxx17__normal_iteratorIPKhSt6vectorIhSaIhEEEEPhEET0_T_SC_SB_
FNDA:839,_ZSt18uninitialized_copyIPKhPhET0_T_S4_S3_
FNDA:2682,_ZSt18uninitialized_copyISt13move_iteratorIPhES1_ET0_T_S4_S3_
FNDA:1958,_ZSt18uninitialized_copyISt13move_iteratorIPmES1_ET0_T_S4_S3_
FNDA:249,_ZSt18uninitialized_copyIN9__gnu_cxx17__normal_iteratorIPKhSt6vectorIhSaIhEEEEPhET0_T_SA_S9_
FNDA:3923,_ZNSt22__uninitialized_fill_nILb1EE15__uninit_fill_nIPmmmEET_S3_T0_RKT1_
FNDA:3923,_ZSt20uninitialized_fill_nIPmmmET_S1_T0_RKT1_
FNDA:839,_ZSt22__uninitialized_copy_aIPKhPhhET0_T_S4_S3_RSaIT1_E
FNDA:2682,_ZSt22__uninitialized_copy_aISt13move_iteratorIPhES1_hET0_T_S4_S3_RSaIT1_E
FNDA:1958,_ZSt22__uninitialized_copy_aISt13move_iteratorIPmES1_mET0_T_S4_S3_RSaIT1_E
FNDA:249,_ZSt22__uninitialized_copy_aIN9__gnu_cxx17__normal_iteratorIPKhSt6vectorIhSaIhEEEEPhhET0_T_SA_S9_RSaIT1_E
FNDA:329,_ZSt22__uninitialized_move_aIPhS0_SaIhEET0_T_S3_S2_RT1_
FNDA:60,_ZSt22__uninitialized_move_aIPmS0_SaImEET0_T_S3_S2_RT1_
FNDA:2353,_ZSt34__uninitialized_move_if_noexcept_aIPhS0_SaIhEET0_T_S3_S2_RT1_
FNDA:1898,_ZSt34__uninitialized_move_if_noexcept_aIPmS0_SaImEET0_T_S3_S2_RT1_
FNDA:3923,_ZSt24__uninitialized_fill_n_aIPmmmmET_S1_T0_RKT1_RSaIT2_E
FNDA:2059,_ZNSt27__uninitialized_default_n_1ILb1EE18__uninit_default_nIPhmEET_S3_T0_
FNDA:1286,_ZNSt27__uninitialized_default_n_1ILb1EE18__uninit_default_nIPmmEET_S3_T0_
FNDA:2059,_ZSt25__uninitialized_default_nIPhmET_S1_T0_
FNDA:1286,_ZSt25__uninitialized_default_nIPmmET_S1_T0_
FNDA:2059,_ZSt27__uninitialized_default_n_aIPhmhET_S1_T0_RSaIT1_E
FNDA:1286,_ZSt27__uninitialized_default_n_aIPmmmET_S1_T0_RSaIT1_E
FNF:25
FNH:25
DA:99,5728
DA:101,5728
DA:115,5728
DA:128,5728
DA:134,5728
DA:226,3923
DA:228,3923
DA:244,3923
DA:252,3923
DA:255,3923
DA:287,5728
DA:289,5728
DA:294,389
DA:297,389
DA:299,389
DA:305,4251
DA:311,4251
DA:312,4251
DA:364,3923
DA:366,3923
DA:543,3345
DA:548,3345
DA:574,3345
DA:579,3345
DA:583,3345
DA:643,3345
DA:645,3345
LF:27
LH:27
end_of_record
SF:/usr/include/c++/7/bits/stl_vector.h
FN:81,_ZNSt12_Vector_baseImSaImEE12_Vector_implD2Ev
FN:81,_ZNSt12_Vector_baseIhSaIhEE12_Vector_implD2Ev
FN:88,_ZNSt12_Vector_baseImSaImEE12_Vector_implC2Ev
FN:88,_ZNSt12_Vector_baseIhSaIhEE12_Vector_implC2Ev
FN:92,_ZNSt12_Vector_baseImSaImEE12_Vector_implC2ERKS0_
FN:92,_ZNSt12_Vector_baseIhSaIhEE12_Vector_implC2ERKS0_
FN:115,_ZNSt12_Vector_baseIhSaIhEE19_M_get_Tp_allocatorEv
FN:115,_ZNSt12_Vector_baseImSaImEE19_M_get_Tp_allocatorEv
FN:119,_ZNKSt12_Vector_baseImSaImEE19_M_get_Tp_allocatorEv
FN:119,_ZNKSt12_Vector_baseIhSaIhEE19_M_get_Tp_allocatorEv
FN:126,_ZNSt12_Vector_baseIhSaIhEEC2Ev
FN:126,_ZNSt12_Vector_baseImSaImEEC2Ev
FN:136,_ZNSt12_Vector_baseImSaImEEC2EmRKS0_
FN:136,_ZNSt12_Vector_baseIhSaIhEEC2EmRKS0_
FN:161,_ZNSt12_Vector_baseImSaImEED2Ev
FN:161,_ZNSt12_Vector_baseIhSaIhEED2Ev
FN:169,_ZNSt12_Vector_baseIhSaIhEE11_M_allocateEm
FN:169,_ZNSt12_Vector_baseImSaImEE11_M_allocateEm
FN:176,_ZNSt12_Vector_baseImSaImEE13_M_deallocateEPmm
FN:176,_ZNSt12_Vector_baseIhSaIhEE13_M_deallocateEPhm
FN:185,_ZNSt12_Vector_baseIhSaIhEE17_M_create_storageEm
FN:185,_ZNSt12_Vector_baseImSaImEE17_M_create_storageEm
FN:259,_ZNSt6vectorImSaImEEC2Ev
FN:259,_ZNSt6vectorIhSaIhEEC2Ev
FN:283,_ZNSt6vectorIhSaIhEEC2EmRKS0_
FN:283,_ZNSt6vectorImSaImEEC2EmRKS0_
FN:295,_ZNSt6vectorImSaImEEC2EmRKmRKS0_
FN:326,_ZNSt6vectorIhSaIhEEC2ERKS1_
FN:433,_ZNSt6vectorImSaImEED2Ev
FN:433,_ZNSt6vectorIhSaIhEED2Ev
FN:563,_ZNSt6vectorIhSaIhEE5beginEv
FN:563,_ZNSt6vectorImSaImEE5beginEv
FN:572,_ZNKSt6vectorIhSaIhEE5beginEv
FN:581,_ZNSt6vectorImSaImEE3endEv
FN:581,_ZNSt6vectorIhSaIhEE3endEv
FN:590,_ZNKSt6vectorIhSaIhEE3endEv
FN:636,_ZNKSt6vectorIhSaIhEE6cbeginEv
FN:670,_ZNKSt6vectorImSaImEE4sizeEv
FN:670,_ZNKSt6vectorIhSaIhEE4sizeEv
FN:675,_ZNKSt6vectorImSaImEE8max_sizeEv
FN:675,_ZNKSt6vectorIhSaIhEE8max_sizeEv
FN:689,_ZNSt6vectorIhSaIhEE6resizeEm
FN:709,_ZNSt6vectorImSaImEE6resizeEmRKm
FN:759,_ZNKSt6vectorIhSaIhEE5emptyEv
FN:795,_ZNSt6vectorImSaImEEixEm
FN:795,_ZNSt6vectorIhSaIhEEixEm
FN:813,_ZNKSt6vectorIhSaIhEEixEm
FN:813,_ZNKSt6vectorImSaImEEixEm
FN:1128,_ZNSt6vectorIhSaIhEE6insertIPKhvEEN9__gnu_cxx17__normal_iteratorIPhS1_EENS6_IS4_S1_EET_SA_
FN:1247,_ZNSt6vectorIhSaIhEE5clearEv
FN:1247,_ZNSt6vectorImSaImEE5clearEv
FN:1339,_ZNSt6vectorImSaImEE18_M_fill_initializeEmRKm
FN:1349,_ZNSt6vectorIhSaIhEE21_M_default_initializeEm
FN:1349,_ZNSt6vectorImSaImEE21_M_default_initializeEm
FN:1408,_ZNSt6vectorIhSaIhEE18_M_insert_dispatchIPKhEEvN9__gnu_cxx17__normal_iteratorIPhS1_EET_S9_St12__false_type
FN:1455,_ZNSt6vectorImSaImEE16_Temporary_valueC2IJRKmEEEPS1_DpOT_
FN:1461,_ZNSt6vectorImSaImEE16_Temporary_valueD2Ev
FN:1465,_ZNSt6vectorImSaImEE16_Temporary_value6_M_valEv
FN:1469,_ZNSt6vectorImSaImEE16_Temporary_value6_M_ptrEv
FN:1502,_ZNKSt6vectorImSaImEE12_M_check_lenEmPKc
FN:1502,_ZNKSt6vectorIhSaIhEE12_M_check_lenEmPKc
FN:1516,_ZNSt6vectorImSaImEE15_M_erase_at_endEPm
FN:1516,_ZNSt6vectorIhSaIhEE15_M_erase_at_endEPh
FNDA:3754,_ZNSt12_Vector_baseIhSaIhEE12_Vector_implD2Ev
FNDA:5451,_ZNSt12_Vector_baseImSaImEE12_Vector_implD2Ev
FNDA:2779,_ZNSt12_Vector_baseIhSaIhEE12_Vector_implC2Ev
FNDA:1251,_ZNSt12_Vector_baseImSaImEE12_Vector_implC2Ev
FNDA:975,_ZNSt12_Vector_baseIhSaIhEE12_Vector_implC2ERKS0_
FNDA:4200,_ZNSt12_Vector_baseImSaImEE12_Vector_implC2ERKS0_
FNDA:11667,_ZNSt12_Vector_baseIhSaIhEE19_M_get_Tp_allocatorEv
FNDA:14576,_ZNSt12_Vector_baseImSaImEE19_M_get_Tp_allocatorEv
FNDA:1898,_ZNKSt12_Vector_baseImSaImEE19_M_get_Tp_allocatorEv
FNDA:3935,_ZNKSt12_Vector_baseIhSaIhEE19_M_get_Tp_allocatorEv
FNDA:2779,_ZNSt12_Vector_baseIhSaIhEEC2Ev
FNDA:1251,_ZNSt12_Vector_baseImSaImEEC2Ev
FNDA:975,_ZNSt12_Vector_baseIhSaIhEEC2EmRKS0_
FNDA:4200,_ZNSt12_Vector_baseImSaImEEC2EmRKS0_
FNDA:3754,_ZNSt12_Vector_baseIhSaIhEED2Ev
FNDA:5451,_ZNSt12_Vector_baseImSaImEED2Ev
FNDA:2818,_ZNSt12_Vector_baseIhSaIhEE11_M_allocateEm
FNDA:5149,_ZNSt12_Vector_baseImSaImEE11_M_allocateEm
FNDA:5597,_ZNSt12_Vector_baseIhSaIhEE13_M_deallocateEPhm
FNDA:6400,_ZNSt12_Vector_baseImSaImEE13_M_deallocateEPmm
FNDA:975,_ZNSt12_Vector_baseIhSaIhEE17_M_create_storageEm
FNDA:4200,_ZNSt12_Vector_baseImSaImEE17_M_create_storageEm
FNDA:2779,_ZNSt6vectorIhSaIhEEC2Ev
FNDA:1251,_ZNSt6vectorImSaImEEC2Ev
FNDA:726,_ZNSt6vectorIhSaIhEEC2EmRKS0_
FNDA:1286,_ZNSt6vectorImSaImEEC2EmRKS0_
FNDA:2914,_ZNSt6vectorImSaImEEC2EmRKmRKS0_
FNDA:249,_ZNSt6vectorIhSaIhEEC2ERKS1_
FNDA:3754,_ZNSt6vectorIhSaIhEED2Ev
FNDA:5451,_ZNSt6vectorImSaImEED2Ev
FNDA:949,_ZNSt6vectorImSaImEE5beginEv
FNDA:1686,_ZNSt6vectorIhSaIhEE5beginEv
FNDA:1196,_ZNKSt6vectorIhSaIhEE5beginEv
FNDA:1069,_ZNSt6vectorImSaImEE3endEv
FNDA:1172,_ZNSt6vectorIhSaIhEE3endEv
FNDA:1196,_ZNKSt6vectorIhSaIhEE3endEv
FNDA:843,_ZNKSt6vectorIhSaIhEE6cbeginEv
FNDA:183732,_ZNKSt6vectorIhSaIhEE4sizeEv
FNDA:1157805,_ZNKSt6vectorImSaImEE4sizeEv
FNDA:3686,_ZNKSt6vectorIhSaIhEE8max_sizeEv
FNDA:1898,_ZNKSt6vectorImSaImEE8max_sizeEv
FNDA:1678,_ZNSt6vectorIhSaIhEE6resizeEm
FNDA:1009,_ZNSt6vectorImSaImEE6resizeEmRKm
FNDA:947,_ZNKSt6vectorIhSaIhEE5emptyEv
FNDA:1070597,_ZNSt6vectorIhSaIhEEixEm
FNDA:2321685,_ZNSt6vectorImSaImEEixEm
FNDA:3982,_ZNKSt6vectorIhSaIhEEixEm
FNDA:3031008,_ZNKSt6vectorImSaImEEixEm
FNDA:843,_ZNSt6vectorIhSaIhEE6insertIPKhvEEN9__gnu_cxx17__normal_iteratorIPhS1_EENS6_IS4_S1_EET_SA_
FNDA:0,_ZNSt6vectorIhSaIhEE5clearEv
FNDA:1009,_ZNSt6vectorImSaImEE5clearEv
FNDA:2914,_ZNSt6vectorImSaImEE18_M_fill_initializeEmRKm
FNDA:726,_ZNSt6vectorIhSaIhEE21_M_default_initializeEm
FNDA:1286,_ZNSt6vectorImSaImEE21_M_default_initializeEm
FNDA:843,_ZNSt6vectorIhSaIhEE18_M_insert_dispatchIPKhEEvN9__gnu_cxx17__normal_iteratorIPhS1_EET_S9_St12__false_type
FNDA:60,_ZNSt6vectorImSaImEE16_Temporary_valueC2IJRKmEEEPS1_DpOT_
FNDA:60,_ZNSt6vectorImSaImEE16_Temporary_valueD2Ev
FNDA:180,_ZNSt6vectorImSaImEE16_Temporary_value6_M_valEv
FNDA:120,_ZNSt6vectorImSaImEE16_Temporary_value6_M_ptrEv
FNDA:1843,_ZNKSt6vectorIhSaIhEE12_M_check_lenEmPKc
FNDA:949,_ZNKSt6vectorImSaImEE12_M_check_lenEmPKc
FNDA:241,_ZNSt6vectorIhSaIhEE15_M_erase_at_endEPh
FNDA:1009,_ZNSt6vectorImSaImEE15_M_erase_at_endEPm
FNF:63
FNH:62
DA:81,9205
DA:88,4030
DA:89,4030
DA:90,4030
DA:92,5175
DA:93,5175
DA:94,5175
DA:115,26243
DA:116,26243
DA:119,5833
DA:120,5833
DA:126,4030
DA:127,4030
DA:136,5175
DA:137,5175
DA:138,5175
DA:161,9205
DA:162,18410
DA:163,18410
DA:169,7967
DA:172,7967
DA:176,11997
DA:179,11997
DA:180,7967
DA:181,11997
DA:185,5175
DA:187,5175
DA:188,5175
DA:189,5175
DA:190,5175
DA:259,4030
DA:263,4030
DA:283,2012
DA:284,2012
DA:285,2012
DA:295,2914
DA:297,2914
DA:298,2914
DA:326,249
DA:328,249
DA:330,249
DA:331,249
DA:333,249
DA:334,249
DA:433,9205
DA:434,9205
DA:435,18410
DA:563,2635
DA:564,2635
DA:572,1196
DA:573,1196
DA:581,2241
DA:582,2241
DA:590,1196
DA:591,1196
DA:636,843
DA:637,843
DA:670,1341537
DA:671,1341537
DA:675,5584
DA:676,5584
DA:689,1678
DA:691,1678
DA:692,1333
DA:693,345
DA:694,241
DA:695,1678
DA:709,1009
DA:711,1009
DA:712,1009
DA:713,0
DA:714,0
DA:715,1009
DA:759,947
DA:760,947
DA:795,3392282
DA:798,3392282
DA:813,3034990
DA:816,3034990
DA:1128,843
DA:1131,843
DA:1132,843
DA:1134,843
DA:1247,1009
DA:1248,1009
DA:1339,2914
DA:1341,2914
DA:1342,2914
DA:1343,2914
DA:1344,2914
DA:1349,2012
DA:1351,2012
DA:1352,2012
DA:1353,2012
DA:1354,2012
DA:1408,843
DA:1411,843
DA:1412,1686
DA:1413,843
DA:1455,60
DA:1457,60
DA:1459,60
DA:1461,60
DA:1462,60
DA:1465,180
DA:1469,120
DA:1502,2792
DA:1504,2792
DA:1505,0
DA:1507,2792
DA:1508,2792
DA:1516,1250
DA:1518,1250
DA:1519,1250
DA:1520,1250
LF:115
LH:112
end_of_record
SF:/usr/include/c++/7/bits/vector.tcc
FN:458,_ZNSt6vectorImSaImEE14_M_fill_insertEN9__gnu_cxx17__normal_iteratorIPmS1_EEmRKm
FN:554,_ZNSt6vectorIhSaIhEE17_M_default_appendEm
FN:630,_ZNSt6vectorIhSaIhEE15_M_range_insertIPKhEEvN9__gnu_cxx17__normal_iteratorIPhS1_EET_S9_St20forward_iterator_tag
FNDA:1009,_ZNSt6vectorImSaImEE14_M_fill_insertEN9__gnu_cxx17__normal_iteratorIPmS1_EEmRKm
FNDA:1333,_ZNSt6vectorIhSaIhEE17_M_default_appendEm
FNDA:843,_ZNSt6vectorIhSaIhEE15_M_range_insertIPKhEEvN9__gnu_cxx17__normal_iteratorIPhS1_EET_S9_St20forward_iterator_tag
FNF:3
FNH:3
DA:458,1009
DA:461,1009
DA:463,2018
DA:464,1009
DA:469,120
DA:470,60
DA:472,60
DA:473,60
DA:474,60
DA:476,0
DA:479,0
DA:480,0
DA:481,0
DA:483,0
DA:488,60
DA:489,60
DA:492,60
DA:493,60
DA:495,60
DA:496,60
DA:497,60
DA:502,949
DA:504,949
DA:505,949
DA:506,949
DA:510,949
DA:512,949
DA:513,949
DA:515,949
DA:517,949
DA:518,949
DA:520,949
DA:522,949
DA:524,949
DA:525,949
DA:527,0
DA:529,0
DA:530,0
DA:531,0
DA:532,0
DA:534,0
DA:535,0
DA:536,0
DA:537,0
DA:539,949
DA:540,949
DA:541,1898
DA:542,949
DA:543,949
DA:544,949
DA:545,949
DA:546,949
DA:549,1009
DA:554,1333
DA:557,1333
DA:559,2666
DA:560,1333
DA:562,0
DA:563,0
DA:564,0
DA:568,1333
DA:570,1333
DA:571,1333
DA:572,1333
DA:575,1333
DA:576,1333
DA:577,1333
DA:578,1333
DA:580,1333
DA:582,0
DA:584,0
DA:585,0
DA:586,0
DA:587,0
DA:588,0
DA:590,1333
DA:591,1333
DA:592,2666
DA:593,1333
DA:594,1333
DA:595,1333
DA:596,1333
DA:597,1333
DA:600,1333
DA:630,843
DA:634,843
DA:636,839
DA:637,1678
DA:638,839
DA:640,329
DA:641,329
DA:642,329
DA:644,0
DA:647,0
DA:648,0
DA:649,0
DA:651,0
DA:655,329
DA:656,329
DA:657,329
DA:659,329
DA:660,329
DA:661,329
DA:664,329
DA:665,329
DA:666,329
DA:671,510
DA:673,510
DA:674,510
DA:677,510
DA:679,510
DA:680,510
DA:681,510
DA:684,510
DA:685,510
DA:687,510
DA:688,510
DA:690,0
DA:692,0
DA:693,0
DA:694,0
DA:695,0
DA:697,510
DA:698,510
DA:699,1020
DA:700,510
DA:701,510
DA:702,510
DA:703,510
DA:704,510
DA:707,843
LF:131
LH:98
end_of_record
SF:/usr/include/c++/7/ext/alloc_traits.h
FN:94,_ZN9__gnu_cxx14__alloc_traitsISaIhEE17_S_select_on_copyERKS1_
FNDA:249,_ZN9__gnu_cxx14__alloc_traitsISaIhEE17_S_select_on_copyERKS1_
FNF:1
FNH:1
DA:94,249
DA:95,249
LF:2
LH:2
end_of_record
SF:/usr/include/c++/7/ext/new_allocator.h
FN:79,_ZN9__gnu_cxx13new_allocatorIhEC2Ev
FN:79,_ZN9__gnu_cxx13new_allocatorImEC2Ev
FN:81,_ZN9__gnu_cxx13new_allocatorImEC2ERKS1_
FN:81,_ZN9__gnu_cxx13new_allocatorIhEC2ERKS1_
FN:86,_ZN9__gnu_cxx13new_allocatorImED2Ev
FN:86,_ZN9__gnu_cxx13new_allocatorIhED2Ev
FN:99,_ZN9__gnu_cxx13new_allocatorImE8allocateEmPKv
FN:99,_ZN9__gnu_cxx13new_allocatorIhE8allocateEmPKv
FN:116,_ZN9__gnu_cxx13new_allocatorIhE10deallocateEPhm
FN:116,_ZN9__gnu_cxx13new_allocatorImE10deallocateEPmm
FN:129,_ZNK9__gnu_cxx13new_allocatorIhE8max_sizeEv
FN:129,_ZNK9__gnu_cxx13new_allocatorImE8max_sizeEv
FN:135,_ZN9__gnu_cxx13new_allocatorImE9constructImJRKmEEEvPT_DpOT0_
FN:140,_ZN9__gnu_cxx13new_allocatorImE7destroyImEEvPT_
FNDA:3505,_ZN9__gnu_cxx13new_allocatorIhEC2Ev
FNDA:5451,_ZN9__gnu_cxx13new_allocatorImEC2Ev
FNDA:4200,_ZN9__gnu_cxx13new_allocatorImEC2ERKS1_
FNDA:1224,_ZN9__gnu_cxx13new_allocatorIhEC2ERKS1_
FNDA:4729,_ZN9__gnu_cxx13new_allocatorIhED2Ev
FNDA:9651,_ZN9__gnu_cxx13new_allocatorImED2Ev
FNDA:2818,_ZN9__gnu_cxx13new_allocatorIhE8allocateEmPKv
FNDA:5149,_ZN9__gnu_cxx13new_allocatorImE8allocateEmPKv
FNDA:2818,_ZN9__gnu_cxx13new_allocatorIhE10deallocateEPhm
FNDA:5149,_ZN9__gnu_cxx13new_allocatorImE10deallocateEPmm
FNDA:6504,_ZNK9__gnu_cxx13new_allocatorIhE8max_sizeEv
FNDA:7047,_ZNK9__gnu_cxx13new_allocatorImE8max_sizeEv
FNDA:60,_ZN9__gnu_cxx13new_allocatorImE9constructImJRKmEEEvPT_DpOT0_
FNDA:60,_ZN9__gnu_cxx13new_allocatorImE7destroyImEEvPT_
FNF:14
FNH:14
DA:79,8956
DA:81,5424
DA:86,14380
DA:99,7967
DA:101,7967
DA:102,0
DA:111,7967
DA:116,7967
DA:125,7967
DA:126,7967
DA:129,13551
DA:130,13551
DA:135,60
DA:136,60
DA:140,60
LF:15
LH:14
end_of_record
SF:/usr/include/c++/7/iostream
DA:74,698
LF:1
LH:1
end_of_record
SF:/usr/include/c++/7/new
FN:168,_ZnwmPv
FNDA:60,_ZnwmPv
FNF:1
FNH:1
DA:168,60
DA:169,60
LF:2
LH:2
end_of_record
SF:/home/irons/fuzzing/eval/2coverage/picopng-cov/picopng.cpp
FN:25,_Z9decodePNGRSt6vectorIhSaIhEERmS3_PKhmb
FN:60,_ZZ9decodePNGRSt6vectorIhSaIhEERmS3_PKhmbEN4Zlib17readBitFromStreamES3_S5_
FN:61,_ZZ9decodePNGRSt6vectorIhSaIhEERmS3_PKhmbEN4Zlib18readBitsFromStreamES3_S5_m
FN:67,_ZZ9decodePNGRSt6vectorIhSaIhEERmS3_PKhmbEN4Zlib11HuffmanTreeD2Ev
FN:67,_ZZ9decodePNGRSt6vectorIhSaIhEERmS3_PKhmbEN4Zlib11HuffmanTreeC2Ev
FN:69,_ZZ9decodePNGRSt6vectorIhSaIhEERmS3_PKhmbEN4Zlib11HuffmanTree15makeFromLengthsERKS_ImSaImEEm
FN:91,_ZZ9decodePNGRSt6vectorIhSaIhEERmS3_PKhmbENK4Zlib11HuffmanTree6decodeERbS3_S3_m
FN:102,_ZZ9decodePNGRSt6vectorIhSaIhEERmS3_PKhmbEN4Zlib8InflatorC2Ev
FN:102,_ZZ9decodePNGRSt6vectorIhSaIhEERmS3_PKhmbEN4Zlib8InflatorD2Ev
FN:105,_ZZ9decodePNGRSt6vectorIhSaIhEERmS3_PKhmbEN4Zlib8Inflator7inflateES2_RKS1_m
FN:121,_ZZ9decodePNGRSt6vectorIhSaIhEERmS3_PKhmbEN4Zlib8Inflator18generateFixedTreesERZ9decodePNGS2_S3_S3_S5_mbENS6_11HuffmanTreeES9_
FN:130,_ZZ9decodePNGRSt6vectorIhSaIhEERmS3_PKhmbEN4Zlib8Inflator19huffmanDecodeSymbolES5_S3_RKZ9decodePNGS2_S3_S3_S5_mbENS6_11HuffmanTreeEm
FN:140,_ZZ9decodePNGRSt6vectorIhSaIhEERmS3_PKhmbEN4Zlib8Inflator21getTreeInflateDynamicERZ9decodePNGS2_S3_S3_S5_mbENS6_11HuffmanTreeES9_S5_S3_m
FN:194,_ZZ9decodePNGRSt6vectorIhSaIhEERmS3_PKhmbEN4Zlib8Inflator19inflateHuffmanBlockES2_S5_S3_S3_mm
FN:223,_ZZ9decodePNGRSt6vectorIhSaIhEERmS3_PKhmbEN4Zlib8Inflator20inflateNoCompressionES2_S5_S3_S3_m
FN:236,_ZZ9decodePNGRSt6vectorIhSaIhEERmS3_PKhmbEN4Zlib10decompressES2_RKS1_
FN:248,_ZZ9decodePNGRSt6vectorIhSaIhEERmS3_PKhmbEN3PNGC2Ev
FN:248,_ZZ9decodePNGRSt6vectorIhSaIhEERmS3_PKhmbEN3PNGD2Ev
FN:250,_ZZ9decodePNGRSt6vectorIhSaIhEERmS3_PKhmbEN3PNG4InfoD2Ev
FN:250,_ZZ9decodePNGRSt6vectorIhSaIhEERmS3_PKhmbEN3PNG4InfoC2Ev
FN:257,_ZZ9decodePNGRSt6vectorIhSaIhEERmS3_PKhmbEN3PNG6decodeES2_S5_mb
FN:368,_ZZ9decodePNGRSt6vectorIhSaIhEERmS3_PKhmbEN3PNG13readPngHeaderES5_m
FN:380,_ZZ9decodePNGRSt6vectorIhSaIhEERmS3_PKhmbEN3PNG16unFilterScanlineEPhS5_S5_mmm
FN:420,_ZZ9decodePNGRSt6vectorIhSaIhEERmS3_PKhmbEN3PNG9adam7PassEPhS7_S7_S5_mmmmmmmm
FN:438,_ZZ9decodePNGRSt6vectorIhSaIhEERmS3_PKhmbEN3PNG25readBitFromReversedStreamES3_S5_
FN:439,_ZZ9decodePNGRSt6vectorIhSaIhEERmS3_PKhmbEN3PNG26readBitsFromReversedStreamES3_S5_m
FN:445,_ZZ9decodePNGRSt6vectorIhSaIhEERmS3_PKhmbEN3PNG22setBitOfReversedStreamES3_Phm
FN:446,_ZZ9decodePNGRSt6vectorIhSaIhEERmS3_PKhmbEN3PNG12read32bitIntES5_
FN:447,_ZZ9decodePNGRSt6vectorIhSaIhEERmS3_PKhmbEN3PNG18checkColorValidityEmm
FN:454,_ZZ9decodePNGRSt6vectorIhSaIhEERmS3_PKhmbEN3PNG6getBppERKZ9decodePNGS2_S3_S3_S5_mbENS6_4InfoE
FN:460,_ZZ9decodePNGRSt6vectorIhSaIhEERmS3_PKhmbEN3PNG7convertES2_S5_RZ9decodePNGS2_S3_S3_S5_mbENS6_4InfoEmm
FN:525,_ZZ9decodePNGRSt6vectorIhSaIhEERmS3_PKhmbEN3PNG14paethPredictorEsss
FN:545,_Z8loadFileRSt6vectorIhSaIhEERKNSt7__cxx1112basic_stringIcSt11char_traitsIcESaIcEEE
FN:563,main
FN:579,_GLOBAL__sub_I__Z9decodePNGRSt6vectorIhSaIhEERmS3_PKhmb
FN:579,_Z41__static_initialization_and_destruction_0ii
FNDA:698,_Z9decodePNGRSt6vectorIhSaIhEERmS3_PKhmb
FNDA:1317767,_ZZ9decodePNGRSt6vectorIhSaIhEERmS3_PKhmbEN4Zlib17readBitFromStreamES3_S5_
FNDA:58192,_ZZ9decodePNGRSt6vectorIhSaIhEERmS3_PKhmbEN4Zlib18readBitsFromStreamES3_S5_m
FNDA:1251,_ZZ9decodePNGRSt6vectorIhSaIhEERmS3_PKhmbEN4Zlib11HuffmanTreeD2Ev
FNDA:1251,_ZZ9decodePNGRSt6vectorIhSaIhEERmS3_PKhmbEN4Zlib11HuffmanTreeC2Ev
FNDA:1009,_ZZ9decodePNGRSt6vectorIhSaIhEERmS3_PKhmbEN4Zlib11HuffmanTree15makeFromLengthsERKS_ImSaImEEm
FNDA:1150982,_ZZ9decodePNGRSt6vectorIhSaIhEERmS3_PKhmbENK4Zlib11HuffmanTree6decodeERbS3_S3_m
FNDA:417,_ZZ9decodePNGRSt6vectorIhSaIhEERmS3_PKhmbEN4Zlib8InflatorD2Ev
FNDA:417,_ZZ9decodePNGRSt6vectorIhSaIhEERmS3_PKhmbEN4Zlib8InflatorC2Ev
FNDA:411,_ZZ9decodePNGRSt6vectorIhSaIhEERmS3_PKhmbEN4Zlib8Inflator7inflateES2_RKS1_m
FNDA:171,_ZZ9decodePNGRSt6vectorIhSaIhEERmS3_PKhmbEN4Zlib8Inflator18generateFixedTreesERZ9decodePNGS2_S3_S3_S5_mbENS6_11HuffmanTreeES9_
FNDA:218051,_ZZ9decodePNGRSt6vectorIhSaIhEERmS3_PKhmbEN4Zlib8Inflator19huffmanDecodeSymbolES5_S3_RKZ9decodePNGS2_S3_S3_S5_mbENS6_11HuffmanTreeEm
FNDA:277,_ZZ9decodePNGRSt6vectorIhSaIhEERmS3_PKhmbEN4Zlib8Inflator21getTreeInflateDynamicERZ9decodePNGS2_S3_S3_S5_mbENS6_11HuffmanTreeES9_S5_S3_m
FNDA:448,_ZZ9decodePNGRSt6vectorIhSaIhEERmS3_PKhmbEN4Zlib8Inflator19inflateHuffmanBlockES2_S5_S3_S3_mm
FNDA:30,_ZZ9decodePNGRSt6vectorIhSaIhEERmS3_PKhmbEN4Zlib8Inflator20inflateNoCompressionES2_S5_S3_S3_m
FNDA:417,_ZZ9decodePNGRSt6vectorIhSaIhEERmS3_PKhmbEN4Zlib10decompressES2_RKS1_
FNDA:698,_ZZ9decodePNGRSt6vectorIhSaIhEERmS3_PKhmbEN3PNGD2Ev
FNDA:698,_ZZ9decodePNGRSt6vectorIhSaIhEERmS3_PKhmbEN3PNGC2Ev
FNDA:698,_ZZ9decodePNGRSt6vectorIhSaIhEERmS3_PKhmbEN3PNG4InfoD2Ev
FNDA:698,_ZZ9decodePNGRSt6vectorIhSaIhEERmS3_PKhmbEN3PNG4InfoC2Ev
FNDA:698,_ZZ9decodePNGRSt6vectorIhSaIhEERmS3_PKhmbEN3PNG6decodeES2_S5_mb
FNDA:698,_ZZ9decodePNGRSt6vectorIhSaIhEERmS3_PKhmbEN3PNG13readPngHeaderES5_m
FNDA:7190,_ZZ9decodePNGRSt6vectorIhSaIhEERmS3_PKhmbEN3PNG16unFilterScanlineEPhS5_S5_mmm
FNDA:791,_ZZ9decodePNGRSt6vectorIhSaIhEERmS3_PKhmbEN3PNG9adam7PassEPhS7_S7_S5_mmmmmmmm
FNDA:196202,_ZZ9decodePNGRSt6vectorIhSaIhEERmS3_PKhmbEN3PNG25readBitFromReversedStreamES3_S5_
FNDA:16403,_ZZ9decodePNGRSt6vectorIhSaIhEERmS3_PKhmbEN3PNG26readBitsFromReversedStreamES3_S5_m
FNDA:154615,_ZZ9decodePNGRSt6vectorIhSaIhEERmS3_PKhmbEN3PNG22setBitOfReversedStreamES3_Phm
FNDA:5593,_ZZ9decodePNGRSt6vectorIhSaIhEERmS3_PKhmbEN3PNG12read32bitIntES5_
FNDA:687,_ZZ9decodePNGRSt6vectorIhSaIhEERmS3_PKhmbEN3PNG18checkColorValidityEmm
FNDA:417,_ZZ9decodePNGRSt6vectorIhSaIhEERmS3_PKhmbEN3PNG6getBppERKZ9decodePNGS2_S3_S3_S5_mbENS6_4InfoE
FNDA:249,_ZZ9decodePNGRSt6vectorIhSaIhEERmS3_PKhmbEN3PNG7convertES2_S5_RZ9decodePNGS2_S3_S3_S5_mbENS6_4InfoEmm
FNDA:184307,_ZZ9decodePNGRSt6vectorIhSaIhEERmS3_PKhmbEN3PNG14paethPredictorEsss
FNDA:698,_Z8loadFileRSt6vectorIhSaIhEERKNSt7__cxx1112basic_stringIcSt11char_traitsIcESaIcEEE
FNDA:698,main
FNDA:698,_GLOBAL__sub_I__Z9decodePNGRSt6vectorIhSaIhEERmS3_PKhmb
FNDA:698,_Z41__static_initialization_and_destruction_0ii
FNF:36
FNH:36
DA:25,698
DA:60,1317767
DA:61,58192
DA:63,58192
DA:64,58192
DA:65,58192
DA:67,2502
DA:69,1009
DA:71,1009
DA:72,2018
DA:73,1009
DA:74,1009
DA:75,1009
DA:76,1009
DA:77,123087
DA:78,755579
DA:80,633501
DA:81,633501
DA:82,633477
DA:84,160887
DA:85,79626
DA:87,472590
DA:89,985
DA:91,1150982
DA:93,1150982
DA:94,1150982
DA:95,1150920
DA:96,1150920
DA:97,1150920
DA:98,1150920
DA:102,834
DA:105,411
DA:107,411
DA:108,411
DA:109,411
DA:110,1367
DA:112,480
DA:113,479
DA:114,479
DA:115,479
DA:116,478
DA:117,448
DA:119,410
DA:121,171
DA:123,342
DA:124,171
DA:125,171
DA:126,171
DA:127,171
DA:128,171
DA:130,218051
DA:133,218051
DA:135,2083923
DA:136,1150982
DA:137,1150920
DA:140,277
DA:142,462
DA:143,277
DA:144,277
DA:145,277
DA:146,277
DA:147,462
DA:148,277
DA:149,277
DA:150,270
DA:151,60210
DA:153,30034
DA:154,29982
DA:155,2937
DA:157,521
DA:158,521
DA:160,521
DA:161,38
DA:162,2755
DA:164,2236
DA:165,2234
DA:168,2416
DA:170,1497
DA:171,1497
DA:172,9141
DA:174,7648
DA:175,7644
DA:178,919
DA:180,919
DA:181,919
DA:182,29506
DA:184,28593
DA:185,28587
DA:188,0
DA:190,206
DA:191,202
DA:192,188
DA:194,448
DA:196,448
DA:197,277
DA:200,163351
DA:201,162990
DA:202,162659
DA:204,137632
DA:205,137632
DA:207,25027
DA:209,25025
DA:210,25025
DA:211,25022
DA:212,25022
DA:213,25012
DA:214,25010
DA:215,25010
DA:216,25005
DA:217,25005
DA:218,25005
DA:219,25005
DA:221,162639
DA:223,135
DA:225,135
DA:226,30
DA:227,30
DA:228,28
DA:229,28
DA:230,20
DA:231,20
DA:232,18
DA:233,18
DA:236,417
DA:238,834
DA:239,417
DA:240,414
DA:241,413
DA:242,413
DA:243,412
DA:244,411
DA:245,411
DA:248,1396
DA:250,1396
DA:257,698
DA:259,698
DA:260,1138
DA:261,698
DA:262,685
DA:263,943
DA:264,685
DA:265,685
DA:266,9015
DA:268,4433
DA:269,4205
DA:270,4205
DA:271,4199
DA:272,4174
DA:274,843
DA:275,843
DA:277,3331
DA:278,2914
DA:280,86
DA:281,86
DA:282,86
DA:283,2767
DA:285,2682
DA:286,2682
DA:287,85
DA:289,2828
DA:291,117
DA:292,117
DA:294,50
DA:295,49
DA:297,67
DA:299,15
DA:300,14
DA:302,52
DA:304,51
DA:305,50
DA:306,50
DA:307,50
DA:308,50
DA:310,1
DA:314,2711
DA:315,2707
DA:316,2707
DA:318,4165
DA:320,417
DA:321,675
DA:323,417
DA:324,281
DA:325,281
DA:326,281
DA:327,281
DA:329,168
DA:330,168
DA:331,2461
DA:333,2390
DA:334,2390
DA:335,2390
DA:336,2376
DA:340,157
DA:341,1339
DA:343,1265
DA:344,1265
DA:345,1274
DA:346,1256
DA:347,1256
DA:353,113
DA:354,113
DA:355,113
DA:356,113
DA:357,113
DA:358,226
DA:359,904
DA:360,791
DA:362,258
DA:364,498
DA:365,249
DA:368,698
DA:370,698
DA:371,697
DA:372,696
DA:373,694
DA:374,694
DA:375,694
DA:376,691
DA:377,688
DA:378,687
DA:380,7190
DA:382,7190
DA:384,3295
DA:385,993
DA:386,993
DA:387,993
DA:388,993
DA:389,488
DA:390,488
DA:391,43
DA:392,488
DA:393,656
DA:394,656
DA:396,580
DA:397,580
DA:401,76
DA:402,76
DA:404,656
DA:405,1674
DA:406,1674
DA:408,1607
DA:409,1607
DA:413,67
DA:414,67
DA:416,1674
DA:417,84
DA:420,791
DA:422,791
DA:423,745
DA:424,4126
DA:426,3535
DA:427,3535
DA:428,105293
DA:429,101912
DA:430,20165
DA:432,18826
DA:433,18826
DA:435,3381
DA:438,196202
DA:439,16403
DA:441,16403
DA:442,16403
DA:443,16403
DA:445,154615
DA:446,5593
DA:447,687
DA:449,687
DA:450,540
DA:451,351
DA:452,1
DA:454,417
DA:456,417
DA:457,355
DA:458,304
DA:460,249
DA:462,249
DA:463,249
DA:464,249
DA:465,249
DA:466,24600
DA:468,24576
DA:469,24576
DA:470,24
DA:471,225
DA:472,29087
DA:474,29056
DA:475,29056
DA:476,31
DA:477,194
DA:478,1026
DA:480,1025
DA:481,1024
DA:482,1
DA:483,192
DA:484,3075
DA:486,3072
DA:487,3072
DA:488,3
DA:489,189
DA:490,189
DA:491,15375
DA:493,15360
DA:494,15360
DA:495,15
DA:496,174
DA:497,17425
DA:499,17408
DA:500,17408
DA:501,17
DA:502,157
DA:503,13325
DA:505,13312
DA:506,13312
DA:507,13
DA:508,144
DA:509,134
DA:510,14350
DA:512,14336
DA:513,14336
DA:514,14336
DA:515,14
DA:516,120
DA:517,2073
DA:519,2067
DA:520,2067
DA:521,1953
DA:523,134
DA:525,184307
DA:527,184307
DA:528,184307
DA:531,1396
DA:532,698
DA:533,1396
DA:545,698
DA:547,1396
DA:550,698
DA:551,698
DA:552,698
DA:555,698
DA:557,698
DA:558,698
DA:560,0
DA:561,698
DA:563,698
DA:565,698
DA:568,1396
DA:569,698
DA:571,698
DA:574,698
DA:578,698
DA:579,2792
LF:351
LH:349
end_of_record
