TN:
SF:/usr/include/c++/7/bits/alloc_traits.h
FN:435,_ZNSt16allocator_traitsISaImEE8allocateERS0_m
FN:435,_ZNSt16allocator_traitsISaIhEE8allocateERS0_m
FN:461,_ZNSt16allocator_traitsISaImEE10deallocateERS0_Pmm
FN:461,_ZNSt16allocator_traitsISaIhEE10deallocateERS0_Phm
FN:474,_ZNSt16allocator_traitsISaImEE9constructImJRKmEEEvRS0_PT_DpOT0_
FN:486,_ZNSt16allocator_traitsISaImEE7destroyImEEvRS0_PT_
FN:495,_ZNSt16allocator_traitsISaImEE8max_sizeERKS0_
FN:495,_ZNSt16allocator_traitsISaIhEE8max_sizeERKS0_
FN:504,_ZNSt16allocator_traitsISaIhEE37select_on_container_copy_constructionERKS0_
FNDA:739,_ZNSt16allocator_traitsISaIhEE8allocateERS0_m
FNDA:240,_ZNSt16allocator_traitsISaImEE8allocateERS0_m
FNDA:739,_ZNSt16allocator_traitsISaIhEE10deallocateERS0_Phm
FNDA:240,_ZNSt16allocator_traitsISaImEE10deallocateERS0_Pmm
FNDA:0,_ZNSt16allocator_traitsISaImEE9constructImJRKmEEEvRS0_PT_DpOT0_
FNDA:0,_ZNSt16allocator_traitsISaImEE7destroyImEEvRS0_PT_
FNDA:1382,_ZNSt16allocator_traitsISaIhEE8max_sizeERKS0_
FNDA:96,_ZNSt16allocator_traitsISaImEE8max_sizeERKS0_
FNDA:16,_ZNSt16allocator_traitsISaIhEE37select_on_container_copy_constructionERKS0_
FNF:9
FNH:7
DA:435,979
DA:436,979
DA:461,979
DA:462,979
DA:474,0
DA:475,0
DA:486,0
DA:487,0
DA:495,1478
DA:496,1478
DA:504,16
DA:505,16
LF:12
LH:8
end_of_record
SF:/usr/include/c++/7/bits/allocator.h
FN:131,_ZNSaIhEC2Ev
FN:131,_ZNSaImEC2Ev
FN:133,_ZNSaIhEC2ERKS_
FN:133,_ZNSaImEC2ERKS_
FN:139,_ZNSaIhED2Ev
FN:139,_ZNSaImED2Ev
FNDA:1635,_ZNSaIhEC2Ev
FNDA:240,_ZNSaImEC2Ev
FNDA:192,_ZNSaImEC2ERKS_
FNDA:64,_ZNSaIhEC2ERKS_
FNDA:1699,_ZNSaIhED2Ev
FNDA:432,_ZNSaImED2Ev
FNF:6
FNH:6
DA:131,1875
DA:133,256
DA:134,256
DA:139,2131
LF:4
LH:4
end_of_record
SF:/usr/include/c++/7/bits/cpp_type_traits.h
FN:408,_ZSt12__miter_baseIPmET_S1_
FN:408,_ZSt12__miter_baseIPKhET_S2_
FN:408,_ZSt12__miter_baseIN9__gnu_cxx17__normal_iteratorIPKhSt6vectorIhSaIhEEEEET_S8_
FN:408,_ZSt12__miter_baseIPhET_S1_
FNDA:32,_ZSt12__miter_baseIN9__gnu_cxx17__normal_iteratorIPKhSt6vectorIhSaIhEEEEET_S8_
FNDA:170,_ZSt12__miter_baseIPKhET_S2_
FNDA:1552,_ZSt12__miter_baseIPhET_S1_
FNDA:192,_ZSt12__miter_baseIPmET_S1_
FNF:4
FNH:4
DA:408,1946
DA:409,1946
LF:2
LH:2
end_of_record
SF:/usr/include/c++/7/bits/ios_base.h
FN:83,_ZStanSt13_Ios_FmtflagsS_
FN:87,_ZStorSt13_Ios_FmtflagsS_
FN:95,_ZStcoSt13_Ios_Fmtflags
FN:99,_ZStoRRSt13_Ios_FmtflagsS_
FN:103,_ZStaNRSt13_Ios_FmtflagsS_
FN:129,_ZStorSt13_Ios_OpenmodeS_
FN:663,_ZNSt8ios_base4setfESt13_Ios_FmtflagsS0_
FN:1024,_ZSt3hexRSt8ios_base
FNDA:32,_ZStanSt13_Ios_FmtflagsS_
FNDA:16,_ZStorSt13_Ios_FmtflagsS_
FNDA:16,_ZStcoSt13_Ios_Fmtflags
FNDA:16,_ZStoRRSt13_Ios_FmtflagsS_
FNDA:16,_ZStaNRSt13_Ios_FmtflagsS_
FNDA:820,_ZStorSt13_Ios_OpenmodeS_
FNDA:16,_ZNSt8ios_base4setfESt13_Ios_FmtflagsS0_
FNDA:16,_ZSt3hexRSt8ios_base
FNF:8
FNH:8
DA:83,32
DA:84,32
DA:87,16
DA:88,16
DA:95,16
DA:96,16
DA:99,16
DA:100,16
DA:103,16
DA:104,16
DA:129,820
DA:130,820
DA:663,16
DA:665,16
DA:666,16
DA:667,16
DA:668,16
DA:1024,16
DA:1026,16
DA:1027,16
LF:20
LH:20
end_of_record
SF:/usr/include/c++/7/bits/move.h
FN:47,_ZSt11__addressofImEPT_RS0_
FN:73,_ZSt7forwardIRKmEOT_RNSt16remove_referenceIS2_E4typeE
FN:137,_ZSt9addressofImEPT_RS0_
FNDA:0,_ZSt11__addressofImEPT_RS0_
FNDA:0,_ZSt7forwardIRKmEOT_RNSt16remove_referenceIS2_E4typeE
FNDA:0,_ZSt9addressofImEPT_RS0_
FNF:3
FNH:0
DA:47,0
DA:48,0
DA:73,0
DA:74,0
DA:137,0
DA:138,0
LF:6
LH:0
end_of_record
SF:/usr/include/c++/7/bits/postypes.h
FN:137,_ZNKSt4fposI11__mbstate_tEcvlEv
FNDA:820,_ZNKSt4fposI11__mbstate_tEcvlEv
FNF:1
FNH:1
DA:137,820
LF:1
LH:1
end_of_record
SF:/usr/include/c++/7/bits/ptr_traits.h
FN:141,_ZNSt14pointer_traitsIPmE10pointer_toERm
FNDA:0,_ZNSt14pointer_traitsIPmE10pointer_toERm
FNF:1
FNH:0
DA:141,0
DA:142,0
LF:2
LH:0
end_of_record
SF:/usr/include/c++/7/bits/stl_algobase.h
FN:219,_ZSt3maxImERKT_S2_S2_
FN:277,_ZSt12__niter_baseIPKhET_S2_
FN:277,_ZSt12__niter_baseIPhET_S1_
FN:277,_ZSt12__niter_baseIPmET_S1_
FN:357,_ZNSt11__copy_moveILb1ELb1ESt26random_access_iterator_tagE8__copy_mImEEPT_PKS3_S6_S4_
FN:357,_ZNSt11__copy_moveILb0ELb1ESt26random_access_iterator_tagE8__copy_mIhEEPT_PKS3_S6_S4_
FN:357,_ZNSt11__copy_moveILb1ELb1ESt26random_access_iterator_tagE8__copy_mIhEEPT_PKS3_S6_S4_
FN:375,_ZSt13__copy_move_aILb1EPhS0_ET1_T0_S2_S1_
FN:375,_ZSt13__copy_move_aILb1EPmS0_ET1_T0_S2_S1_
FN:375,_ZSt13__copy_move_aILb0EPKhPhET1_T0_S4_S3_
FN:420,_ZSt14__copy_move_a2ILb0EN9__gnu_cxx17__normal_iteratorIPKhSt6vectorIhSaIhEEEEPhET1_T0_SA_S9_
FN:420,_ZSt14__copy_move_a2ILb0EPKhN9__gnu_cxx17__normal_iteratorIPhSt6vectorIhSaIhEEEEET1_T0_SA_S9_
FN:420,_ZSt14__copy_move_a2ILb1EPhS0_ET1_T0_S2_S1_
FN:420,_ZSt14__copy_move_a2ILb1EPmS0_ET1_T0_S2_S1_
FN:420,_ZSt14__copy_move_a2ILb0EPKhPhET1_T0_S4_S3_
FN:446,_ZSt4copyIPKhN9__gnu_cxx17__normal_iteratorIPhSt6vectorIhSaIhEEEEET0_T_SA_S9_
FN:446,_ZSt4copyIPKhPhET0_T_S4_S3_
FN:446,_ZSt4copyIN9__gnu_cxx17__normal_iteratorIPKhSt6vectorIhSaIhEEEEPhET0_T_SA_S9_
FN:446,_ZSt4copyISt13move_iteratorIPmES1_ET0_T_S4_S3_
FN:446,_ZSt4copyISt13move_iteratorIPhES1_ET0_T_S4_S3_
FN:559,_ZNSt20__copy_move_backwardILb1ELb1ESt26random_access_iterator_tagE13__copy_move_bIhEEPT_PKS3_S6_S4_
FN:559,_ZNSt20__copy_move_backwardILb1ELb1ESt26random_access_iterator_tagE13__copy_move_bImEEPT_PKS3_S6_S4_
FN:577,_ZSt22__copy_move_backward_aILb1EPhS0_ET1_T0_S2_S1_
FN:577,_ZSt22__copy_move_backward_aILb1EPmS0_ET1_T0_S2_S1_
FN:595,_ZSt23__copy_move_backward_a2ILb1EPhS0_ET1_T0_S2_S1_
FN:595,_ZSt23__copy_move_backward_a2ILb1EPmS0_ET1_T0_S2_S1_
FN:658,_ZSt13move_backwardIPmS0_ET0_T_S2_S1_
FN:658,_ZSt13move_backwardIPhS0_ET0_T_S2_S1_
FN:691,_ZSt8__fill_aIPmmEN9__gnu_cxx11__enable_ifIXsrSt11__is_scalarIT0_E7__valueEvE6__typeET_S8_RKS4_
FN:703,_ZSt8__fill_aIhEN9__gnu_cxx11__enable_ifIXsrSt9__is_byteIT_E7__valueEvE6__typeEPS3_S7_RKS3_
FN:724,_ZSt4fillIPmmEvT_S1_RKT0_
FN:749,_ZSt10__fill_n_aIPmmmEN9__gnu_cxx11__enable_ifIXsrSt11__is_scalarIT1_E7__valueET_E6__typeES6_T0_RKS4_
FN:761,_ZSt10__fill_n_aImhEN9__gnu_cxx11__enable_ifIXsrSt9__is_byteIT0_E7__valueEPS3_E6__typeES5_T_RKS3_
FN:784,_ZSt6fill_nIPmmmET_S1_T0_RKT1_
FN:784,_ZSt6fill_nIPhmhET_S1_T0_RKT1_
FNDA:739,_ZSt3maxImERKT_S2_S2_
FNDA:170,_ZSt12__niter_baseIPKhET_S2_
FNDA:3067,_ZSt12__niter_baseIPhET_S1_
FNDA:528,_ZSt12__niter_baseIPmET_S1_
FNDA:776,_ZNSt11__copy_moveILb1ELb1ESt26random_access_iterator_tagE8__copy_mIhEEPT_PKS3_S6_S4_
FNDA:96,_ZNSt11__copy_moveILb1ELb1ESt26random_access_iterator_tagE8__copy_mImEEPT_PKS3_S6_S4_
FNDA:101,_ZNSt11__copy_moveILb0ELb1ESt26random_access_iterator_tagE8__copy_mIhEEPT_PKS3_S6_S4_
FNDA:776,_ZSt13__copy_move_aILb1EPhS0_ET1_T0_S2_S1_
FNDA:96,_ZSt13__copy_move_aILb1EPmS0_ET1_T0_S2_S1_
FNDA:101,_ZSt13__copy_move_aILb0EPKhPhET1_T0_S4_S3_
FNDA:85,_ZSt14__copy_move_a2ILb0EPKhPhET1_T0_S4_S3_
FNDA:776,_ZSt14__copy_move_a2ILb1EPhS0_ET1_T0_S2_S1_
FNDA:96,_ZSt14__copy_move_a2ILb1EPmS0_ET1_T0_S2_S1_
FNDA:16,_ZSt14__copy_move_a2ILb0EN9__gnu_cxx17__normal_iteratorIPKhSt6vectorIhSaIhEEEEPhET1_T0_SA_S9_
FNDA:0,_ZSt14__copy_move_a2ILb0EPKhN9__gnu_cxx17__normal_iteratorIPhSt6vectorIhSaIhEEEEET1_T0_SA_S9_
FNDA:85,_ZSt4copyIPKhPhET0_T_S4_S3_
FNDA:776,_ZSt4copyISt13move_iteratorIPhES1_ET0_T_S4_S3_
FNDA:96,_ZSt4copyISt13move_iteratorIPmES1_ET0_T_S4_S3_
FNDA:16,_ZSt4copyIN9__gnu_cxx17__normal_iteratorIPKhSt6vectorIhSaIhEEEEPhET0_T_SA_S9_
FNDA:0,_ZSt4copyIPKhN9__gnu_cxx17__normal_iteratorIPhSt6vectorIhSaIhEEEEET0_T_SA_S9_
FNDA:0,_ZNSt20__copy_move_backwardILb1ELb1ESt26random_access_iterator_tagE13__copy_move_bIhEEPT_PKS3_S6_S4_
FNDA:0,_ZNSt20__copy_move_backwardILb1ELb1ESt26random_access_iterator_tagE13__copy_move_bImEEPT_PKS3_S6_S4_
FNDA:0,_ZSt22__copy_move_backward_aILb1EPhS0_ET1_T0_S2_S1_
FNDA:0,_ZSt22__copy_move_backward_aILb1EPmS0_ET1_T0_S2_S1_
FNDA:0,_ZSt23__copy_move_backward_a2ILb1EPhS0_ET1_T0_S2_S1_
FNDA:0,_ZSt23__copy_move_backward_a2ILb1EPmS0_ET1_T0_S2_S1_
FNDA:0,_ZSt13move_backwardIPhS0_ET0_T_S2_S1_
FNDA:0,_ZSt13move_backwardIPmS0_ET0_T_S2_S1_
FNDA:0,_ZSt8__fill_aIPmmEN9__gnu_cxx11__enable_ifIXsrSt11__is_scalarIT0_E7__valueEvE6__typeET_S8_RKS4_
FNDA:638,_ZSt8__fill_aIhEN9__gnu_cxx11__enable_ifIXsrSt9__is_byteIT_E7__valueEvE6__typeEPS3_S7_RKS3_
FNDA:0,_ZSt4fillIPmmEvT_S1_RKT0_
FNDA:240,_ZSt10__fill_n_aIPmmmEN9__gnu_cxx11__enable_ifIXsrSt11__is_scalarIT1_E7__valueET_E6__typeES6_T0_RKS4_
FNDA:638,_ZSt10__fill_n_aImhEN9__gnu_cxx11__enable_ifIXsrSt9__is_byteIT0_E7__valueEPS3_E6__typeES5_T_RKS3_
FNDA:638,_ZSt6fill_nIPhmhET_S1_T0_RKT1_
FNDA:240,_ZSt6fill_nIPmmmET_S1_T0_RKT1_
FNF:35
FNH:23
DA:219,739
DA:224,739
DA:225,737
DA:226,2
DA:277,3765
DA:278,3765
DA:357,973
DA:366,973
DA:367,973
DA:368,120
DA:369,973
DA:375,973
DA:380,973
DA:386,973
DA:420,973
DA:422,973
DA:424,973
DA:446,973
DA:455,973
DA:456,973
DA:559,0
DA:568,0
DA:569,0
DA:570,0
DA:571,0
DA:577,0
DA:582,0
DA:590,0
DA:595,0
DA:598,0
DA:599,0
DA:658,0
DA:668,0
DA:670,0
DA:691,0
DA:694,0
DA:695,0
DA:696,0
DA:697,0
DA:703,638
DA:705,638
DA:706,638
DA:707,638
DA:708,638
DA:724,0
DA:731,0
DA:733,0
DA:749,240
DA:751,240
DA:752,23216
DA:753,23216
DA:754,22976
DA:755,240
DA:761,638
DA:763,638
DA:764,638
DA:784,878
DA:789,878
LF:58
LH:36
end_of_record
SF:/usr/include/c++/7/bits/stl_construct.h
FN:117,_ZNSt12_Destroy_auxILb1EE9__destroyIPhEEvT_S3_
FN:117,_ZNSt12_Destroy_auxILb1EE9__destroyIPmEEvT_S3_
FN:127,_ZSt8_DestroyIPmEvT_S1_
FN:127,_ZSt8_DestroyIPhEvT_S1_
FN:203,_ZSt8_DestroyIPhhEvT_S1_RSaIT0_E
FN:203,_ZSt8_DestroyIPmmEvT_S1_RSaIT0_E
FNDA:2359,_ZNSt12_Destroy_auxILb1EE9__destroyIPhEEvT_S3_
FNDA:336,_ZNSt12_Destroy_auxILb1EE9__destroyIPmEEvT_S3_
FNDA:2359,_ZSt8_DestroyIPhEvT_S1_
FNDA:336,_ZSt8_DestroyIPmEvT_S1_
FNDA:2359,_ZSt8_DestroyIPhhEvT_S1_RSaIT0_E
FNDA:336,_ZSt8_DestroyIPmmEvT_S1_RSaIT0_E
FNF:6
FNH:6
DA:117,2695
DA:127,2695
DA:137,2695
DA:138,2695
DA:203,2695
DA:206,2695
DA:207,2695
LF:7
LH:7
end_of_record
SF:/usr/include/c++/7/bits/stl_iterator.h
FN:782,_ZN9__gnu_cxx17__normal_iteratorIPKhSt6vectorIhSaIhEEEC2ERKS2_
FN:782,_ZN9__gnu_cxx17__normal_iteratorIPhSt6vectorIhSaIhEEEC2ERKS1_
FN:782,_ZN9__gnu_cxx17__normal_iteratorIPmSt6vectorImSaImEEEC2ERKS1_
FN:787,_ZN9__gnu_cxx17__normal_iteratorIPKhSt6vectorIhSaIhEEEC2IPhEERKNS0_IT_NS_11__enable_ifIXsrSt10__are_sameIS9_S8_E7__valueES5_E6__typeEEE
FN:835,_ZNK9__gnu_cxx17__normal_iteratorIPhSt6vectorIhSaIhEEEplEl
FN:847,_ZNK9__gnu_cxx17__normal_iteratorIPhSt6vectorIhSaIhEEE4baseEv
FN:847,_ZNK9__gnu_cxx17__normal_iteratorIPmSt6vectorImSaImEEE4baseEv
FN:847,_ZNK9__gnu_cxx17__normal_iteratorIPKhSt6vectorIhSaIhEEE4baseEv
FN:869,_ZN9__gnu_cxxeqIPKhSt6vectorIhSaIhEEEEbRKNS_17__normal_iteratorIT_T0_EESB_
FN:965,_ZN9__gnu_cxxmiIPmSt6vectorImSaImEEEENS_17__normal_iteratorIT_T0_E15difference_typeERKS8_SB_
FN:965,_ZN9__gnu_cxxmiIPKhSt6vectorIhSaIhEEEENS_17__normal_iteratorIT_T0_E15difference_typeERKS9_SC_
FN:965,_ZN9__gnu_cxxmiIPhSt6vectorIhSaIhEEEENS_17__normal_iteratorIT_T0_E15difference_typeERKS8_SB_
FN:986,_ZSt12__niter_baseIPhSt6vectorIhSaIhEEET_N9__gnu_cxx17__normal_iteratorIS4_T0_EE
FN:986,_ZSt12__niter_baseIPKhSt6vectorIhSaIhEEET_N9__gnu_cxx17__normal_iteratorIS5_T0_EE
FN:1039,_ZNSt13move_iteratorIPhEC2ES0_
FN:1039,_ZNSt13move_iteratorIPmEC2ES0_
FN:1048,_ZNKSt13move_iteratorIPhE4baseEv
FN:1048,_ZNKSt13move_iteratorIPmE4baseEv
FN:1207,_ZSt18make_move_iteratorIPhESt13move_iteratorIT_ES2_
FN:1207,_ZSt18make_move_iteratorIPmESt13move_iteratorIT_ES2_
FN:1224,_ZSt32__make_move_if_noexcept_iteratorImSt13move_iteratorIPmEET0_PT_
FN:1224,_ZSt32__make_move_if_noexcept_iteratorIhSt13move_iteratorIPhEET0_PT_
FN:1244,_ZSt12__miter_baseIPhEDTcl12__miter_basecldtfp_4baseEEESt13move_iteratorIT_E
FN:1244,_ZSt12__miter_baseIPmEDTcl12__miter_basecldtfp_4baseEEESt13move_iteratorIT_E
FNDA:970,_ZN9__gnu_cxx17__normal_iteratorIPKhSt6vectorIhSaIhEEEC2ERKS2_
FNDA:96,_ZN9__gnu_cxx17__normal_iteratorIPmSt6vectorImSaImEEEC2ERKS1_
FNDA:430,_ZN9__gnu_cxx17__normal_iteratorIPhSt6vectorIhSaIhEEEC2ERKS1_
FNDA:86,_ZN9__gnu_cxx17__normal_iteratorIPKhSt6vectorIhSaIhEEEC2IPhEERKNS0_IT_NS_11__enable_ifIXsrSt10__are_sameIS9_S8_E7__valueES5_E6__typeEEE
FNDA:172,_ZNK9__gnu_cxx17__normal_iteratorIPhSt6vectorIhSaIhEEEplEl
FNDA:1056,_ZNK9__gnu_cxx17__normal_iteratorIPKhSt6vectorIhSaIhEEE4baseEv
FNDA:192,_ZNK9__gnu_cxx17__normal_iteratorIPmSt6vectorImSaImEEE4baseEv
FNDA:256,_ZNK9__gnu_cxx17__normal_iteratorIPhSt6vectorIhSaIhEEE4baseEv
FNDA:426,_ZN9__gnu_cxxeqIPKhSt6vectorIhSaIhEEEEbRKNS_17__normal_iteratorIT_T0_EESB_
FNDA:0,_ZN9__gnu_cxxmiIPhSt6vectorIhSaIhEEEENS_17__normal_iteratorIT_T0_E15difference_typeERKS8_SB_
FNDA:48,_ZN9__gnu_cxxmiIPmSt6vectorImSaImEEEENS_17__normal_iteratorIT_T0_E15difference_typeERKS8_SB_
FNDA:86,_ZN9__gnu_cxxmiIPKhSt6vectorIhSaIhEEEENS_17__normal_iteratorIT_T0_E15difference_typeERKS9_SC_
FNDA:32,_ZSt12__niter_baseIPKhSt6vectorIhSaIhEEET_N9__gnu_cxx17__normal_iteratorIS5_T0_EE
FNDA:0,_ZSt12__niter_baseIPhSt6vectorIhSaIhEEET_N9__gnu_cxx17__normal_iteratorIS4_T0_EE
FNDA:1552,_ZNSt13move_iteratorIPhEC2ES0_
FNDA:192,_ZNSt13move_iteratorIPmEC2ES0_
FNDA:1552,_ZNKSt13move_iteratorIPhE4baseEv
FNDA:192,_ZNKSt13move_iteratorIPmE4baseEv
FNDA:0,_ZSt18make_move_iteratorIPhESt13move_iteratorIT_ES2_
FNDA:0,_ZSt18make_move_iteratorIPmESt13move_iteratorIT_ES2_
FNDA:1552,_ZSt32__make_move_if_noexcept_iteratorIhSt13move_iteratorIPhEET0_PT_
FNDA:192,_ZSt32__make_move_if_noexcept_iteratorImSt13move_iteratorIPmEET0_PT_
FNDA:1552,_ZSt12__miter_baseIPhEDTcl12__miter_basecldtfp_4baseEEESt13move_iteratorIT_E
FNDA:192,_ZSt12__miter_baseIPmEDTcl12__miter_basecldtfp_4baseEEESt13move_iteratorIT_E
FNF:24
FNH:20
DA:782,1496
DA:783,1496
DA:787,86
DA:791,86
DA:835,172
DA:836,172
DA:847,1504
DA:848,1504
DA:869,426
DA:872,426
DA:965,134
DA:968,134
DA:986,32
DA:987,32
DA:1039,1744
DA:1040,1744
DA:1048,1744
DA:1049,1744
DA:1207,0
DA:1208,0
DA:1224,1744
DA:1225,1744
DA:1244,1744
DA:1246,1744
LF:24
LH:22
end_of_record
SF:/usr/include/c++/7/bits/stl_iterator_base_funcs.h
FN:98,_ZSt10__distanceIPKhENSt15iterator_traitsIT_E15difference_typeES3_S3_St26random_access_iterator_tag
FN:138,_ZSt8distanceIPKhENSt15iterator_traitsIT_E15difference_typeES3_S3_
FN:174,_ZSt9__advanceIPKhlEvRT_T0_St26random_access_iterator_tag
FN:197,_ZSt7advanceIPKhmEvRT_T0_
FNDA:85,_ZSt10__distanceIPKhENSt15iterator_traitsIT_E15difference_typeES3_S3_St26random_access_iterator_tag
FNDA:85,_ZSt8distanceIPKhENSt15iterator_traitsIT_E15difference_typeES3_S3_
FNDA:0,_ZSt9__advanceIPKhlEvRT_T0_St26random_access_iterator_tag
FNDA:0,_ZSt7advanceIPKhmEvRT_T0_
FNF:4
FNH:2
DA:98,85
DA:104,85
DA:138,85
DA:141,85
DA:142,170
DA:174,0
DA:180,0
DA:181,0
DA:197,0
DA:200,0
DA:201,0
DA:202,0
LF:12
LH:5
end_of_record
SF:/usr/include/c++/7/bits/stl_iterator_base_types.h
FN:205,_ZSt19__iterator_categoryIPKhENSt15iterator_traitsIT_E17iterator_categoryERKS3_
FNDA:171,_ZSt19__iterator_categoryIPKhENSt15iterator_traitsIT_E17iterator_categoryERKS3_
FNF:1
FNH:1
DA:205,171
DA:206,171
LF:2
LH:2
end_of_record
SF:/usr/include/c++/7/bits/stl_uninitialized.h
FN:99,_ZNSt20__uninitialized_copyILb1EE13__uninit_copyISt13move_iteratorIPhES3_EET0_T_S6_S5_
FN:99,_ZNSt20__uninitialized_copyILb1EE13__uninit_copyIN9__gnu_cxx17__normal_iteratorIPKhSt6vectorIhSaIhEEEEPhEET0_T_SC_SB_
FN:99,_ZNSt20__uninitialized_copyILb1EE13__uninit_copyISt13move_iteratorIPmES3_EET0_T_S6_S5_
FN:99,_ZNSt20__uninitialized_copyILb1EE13__uninit_copyIPKhPhEET0_T_S6_S5_
FN:115,_ZSt18uninitialized_copyISt13move_iteratorIPmES1_ET0_T_S4_S3_
FN:115,_ZSt18uninitialized_copyISt13move_iteratorIPhES1_ET0_T_S4_S3_
FN:115,_ZSt18uninitialized_copyIPKhPhET0_T_S4_S3_
FN:115,_ZSt18uninitialized_copyIN9__gnu_cxx17__normal_iteratorIPKhSt6vectorIhSaIhEEEEPhET0_T_SA_S9_
FN:226,_ZNSt22__uninitialized_fill_nILb1EE15__uninit_fill_nIPmmmEET_S3_T0_RKT1_
FN:244,_ZSt20uninitialized_fill_nIPmmmET_S1_T0_RKT1_
FN:287,_ZSt22__uninitialized_copy_aIPKhPhhET0_T_S4_S3_RSaIT1_E
FN:287,_ZSt22__uninitialized_copy_aISt13move_iteratorIPhES1_hET0_T_S4_S3_RSaIT1_E
FN:287,_ZSt22__uninitialized_copy_aISt13move_iteratorIPmES1_mET0_T_S4_S3_RSaIT1_E
FN:287,_ZSt22__uninitialized_copy_aIN9__gnu_cxx17__normal_iteratorIPKhSt6vectorIhSaIhEEEEPhhET0_T_SA_S9_RSaIT1_E
FN:294,_ZSt22__uninitialized_move_aIPhS0_SaIhEET0_T_S3_S2_RT1_
FN:294,_ZSt22__uninitialized_move_aIPmS0_SaImEET0_T_S3_S2_RT1_
FN:305,_ZSt34__uninitialized_move_if_noexcept_aIPhS0_SaIhEET0_T_S3_S2_RT1_
FN:305,_ZSt34__uninitialized_move_if_noexcept_aIPmS0_SaImEET0_T_S3_S2_RT1_
FN:364,_ZSt24__uninitialized_fill_n_aIPmmmmET_S1_T0_RKT1_RSaIT2_E
FN:543,_ZNSt27__uninitialized_default_n_1ILb1EE18__uninit_default_nIPmmEET_S3_T0_
FN:543,_ZNSt27__uninitialized_default_n_1ILb1EE18__uninit_default_nIPhmEET_S3_T0_
FN:574,_ZSt25__uninitialized_default_nIPhmET_S1_T0_
FN:574,_ZSt25__uninitialized_default_nIPmmET_S1_T0_
FN:643,_ZSt27__uninitialized_default_n_aIPhmhET_S1_T0_RSaIT1_E
FN:643,_ZSt27__uninitialized_default_n_aIPmmmET_S1_T0_RSaIT1_E
FNDA:85,_ZNSt20__uninitialized_copyILb1EE13__uninit_copyIPKhPhEET0_T_S6_S5_
FNDA:776,_ZNSt20__uninitialized_copyILb1EE13__uninit_copyISt13move_iteratorIPhES3_EET0_T_S6_S5_
FNDA:96,_ZNSt20__uninitialized_copyILb1EE13__uninit_copyISt13move_iteratorIPmES3_EET0_T_S6_S5_
FNDA:16,_ZNSt20__uninitialized_copyILb1EE13__uninit_copyIN9__gnu_cxx17__normal_iteratorIPKhSt6vectorIhSaIhEEEEPhEET0_T_SC_SB_
FNDA:85,_ZSt18uninitialized_copyIPKhPhET0_T_S4_S3_
FNDA:776,_ZSt18uninitialized_copyISt13move_iteratorIPhES1_ET0_T_S4_S3_
FNDA:96,_ZSt18uninitialized_copyISt13move_iteratorIPmES1_ET0_T_S4_S3_
FNDA:16,_ZSt18uninitialized_copyIN9__gnu_cxx17__normal_iteratorIPKhSt6vectorIhSaIhEEEEPhET0_T_SA_S9_
FNDA:176,_ZNSt22__uninitialized_fill_nILb1EE15__uninit_fill_nIPmmmEET_S3_T0_RKT1_
FNDA:176,_ZSt20uninitialized_fill_nIPmmmET_S1_T0_RKT1_
FNDA:85,_ZSt22__uninitialized_copy_aIPKhPhhET0_T_S4_S3_RSaIT1_E
FNDA:776,_ZSt22__uninitialized_copy_aISt13move_iteratorIPhES1_hET0_T_S4_S3_RSaIT1_E
FNDA:96,_ZSt22__uninitialized_copy_aISt13move_iteratorIPmES1_mET0_T_S4_S3_RSaIT1_E
FNDA:16,_ZSt22__uninitialized_copy_aIN9__gnu_cxx17__normal_iteratorIPKhSt6vectorIhSaIhEEEEPhhET0_T_SA_S9_RSaIT1_E
FNDA:0,_ZSt22__uninitialized_move_aIPhS0_SaIhEET0_T_S3_S2_RT1_
FNDA:0,_ZSt22__uninitialized_move_aIPmS0_SaImEET0_T_S3_S2_RT1_
FNDA:776,_ZSt34__uninitialized_move_if_noexcept_aIPhS0_SaIhEET0_T_S3_S2_RT1_
FNDA:96,_ZSt34__uninitialized_move_if_noexcept_aIPmS0_SaImEET0_T_S3_S2_RT1_
FNDA:176,_ZSt24__uninitialized_fill_n_aIPmmmmET_S1_T0_RKT1_RSaIT2_E
FNDA:638,_ZNSt27__uninitialized_default_n_1ILb1EE18__uninit_default_nIPhmEET_S3_T0_
FNDA:64,_ZNSt27__uninitialized_default_n_1ILb1EE18__uninit_default_nIPmmEET_S3_T0_
FNDA:638,_ZSt25__uninitialized_default_nIPhmET_S1_T0_
FNDA:64,_ZSt25__uninitialized_default_nIPmmET_S1_T0_
FNDA:638,_ZSt27__uninitialized_default_n_aIPhmhET_S1_T0_RSaIT1_E
FNDA:64,_ZSt27__uninitialized_default_n_aIPmmmET_S1_T0_RSaIT1_E
FNF:25
FNH:23
DA:99,973
DA:101,973
DA:115,973
DA:128,973
DA:134,973
DA:226,176
DA:228,176
DA:244,176
DA:252,176
DA:255,176
DA:287,973
DA:289,973
DA:294,0
DA:297,0
DA:299,0
DA:305,872
DA:311,872
DA:312,872
DA:364,176
DA:366,176
DA:543,702
DA:548,702
DA:574,702
DA:579,702
DA:583,702
DA:643,702
DA:645,702
LF:27
LH:24
end_of_record
SF:/usr/include/c++/7/bits/stl_vector.h
FN:81,_ZNSt12_Vector_baseImSaImEE12_Vector_implD2Ev
FN:81,_ZNSt12_Vector_baseIhSaIhEE12_Vector_implD2Ev
FN:88,_ZNSt12_Vector_baseIhSaIhEE12_Vector_implC2Ev
FN:88,_ZNSt12_Vector_baseImSaImEE12_Vector_implC2Ev
FN:92,_ZNSt12_Vector_baseIhSaIhEE12_Vector_implC2ERKS0_
FN:92,_ZNSt12_Vector_baseImSaImEE12_Vector_implC2ERKS0_
FN:115,_ZNSt12_Vector_baseIhSaIhEE19_M_get_Tp_allocatorEv
FN:115,_ZNSt12_Vector_baseImSaImEE19_M_get_Tp_allocatorEv
FN:119,_ZNKSt12_Vector_baseIhSaIhEE19_M_get_Tp_allocatorEv
FN:119,_ZNKSt12_Vector_baseImSaImEE19_M_get_Tp_allocatorEv
FN:126,_ZNSt12_Vector_baseImSaImEEC2Ev
FN:126,_ZNSt12_Vector_baseIhSaIhEEC2Ev
FN:136,_ZNSt12_Vector_baseIhSaIhEEC2EmRKS0_
FN:136,_ZNSt12_Vector_baseImSaImEEC2EmRKS0_
FN:161,_ZNSt12_Vector_baseIhSaIhEED2Ev
FN:161,_ZNSt12_Vector_baseImSaImEED2Ev
FN:169,_ZNSt12_Vector_baseImSaImEE11_M_allocateEm
FN:169,_ZNSt12_Vector_baseIhSaIhEE11_M_allocateEm
FN:176,_ZNSt12_Vector_baseImSaImEE13_M_deallocateEPmm
FN:176,_ZNSt12_Vector_baseIhSaIhEE13_M_deallocateEPhm
FN:185,_ZNSt12_Vector_baseImSaImEE17_M_create_storageEm
FN:185,_ZNSt12_Vector_baseIhSaIhEE17_M_create_storageEm
FN:259,_ZNSt6vectorIhSaIhEEC2Ev
FN:259,_ZNSt6vectorImSaImEEC2Ev
FN:283,_ZNSt6vectorImSaImEEC2EmRKS0_
FN:283,_ZNSt6vectorIhSaIhEEC2EmRKS0_
FN:295,_ZNSt6vectorImSaImEEC2EmRKmRKS0_
FN:326,_ZNSt6vectorIhSaIhEEC2ERKS1_
FN:433,_ZNSt6vectorImSaImEED2Ev
FN:433,_ZNSt6vectorIhSaIhEED2Ev
FN:563,_ZNSt6vectorImSaImEE5beginEv
FN:563,_ZNSt6vectorIhSaIhEE5beginEv
FN:572,_ZNKSt6vectorIhSaIhEE5beginEv
FN:581,_ZNSt6vectorIhSaIhEE3endEv
FN:581,_ZNSt6vectorImSaImEE3endEv
FN:590,_ZNKSt6vectorIhSaIhEE3endEv
FN:636,_ZNKSt6vectorIhSaIhEE6cbeginEv
FN:670,_ZNKSt6vectorIhSaIhEE4sizeEv
FN:670,_ZNKSt6vectorImSaImEE4sizeEv
FN:675,_ZNKSt6vectorIhSaIhEE8max_sizeEv
FN:675,_ZNKSt6vectorImSaImEE8max_sizeEv
FN:689,_ZNSt6vectorIhSaIhEE6resizeEm
FN:709,_ZNSt6vectorImSaImEE6resizeEmRKm
FN:759,_ZNKSt6vectorIhSaIhEE5emptyEv
FN:795,_ZNSt6vectorImSaImEEixEm
FN:795,_ZNSt6vectorIhSaIhEEixEm
FN:813,_ZNKSt6vectorImSaImEEixEm
FN:813,_ZNKSt6vectorIhSaIhEEixEm
FN:1128,_ZNSt6vectorIhSaIhEE6insertIPKhvEEN9__gnu_cxx17__normal_iteratorIPhS1_EENS6_IS4_S1_EET_SA_
FN:1247,_ZNSt6vectorImSaImEE5clearEv
FN:1247,_ZNSt6vectorIhSaIhEE5clearEv
FN:1339,_ZNSt6vectorImSaImEE18_M_fill_initializeEmRKm
FN:1349,_ZNSt6vectorIhSaIhEE21_M_default_initializeEm
FN:1349,_ZNSt6vectorImSaImEE21_M_default_initializeEm
FN:1408,_ZNSt6vectorIhSaIhEE18_M_insert_dispatchIPKhEEvN9__gnu_cxx17__normal_iteratorIPhS1_EET_S9_St12__false_type
FN:1455,_ZNSt6vectorImSaImEE16_Temporary_valueC2IJRKmEEEPS1_DpOT_
FN:1461,_ZNSt6vectorImSaImEE16_Temporary_valueD2Ev
FN:1465,_ZNSt6vectorImSaImEE16_Temporary_value6_M_valEv
FN:1469,_ZNSt6vectorImSaImEE16_Temporary_value6_M_ptrEv
FN:1502,_ZNKSt6vectorIhSaIhEE12_M_check_lenEmPKc
FN:1502,_ZNKSt6vectorImSaImEE12_M_check_lenEmPKc
FN:1516,_ZNSt6vectorIhSaIhEE15_M_erase_at_endEPh
FN:1516,_ZNSt6vectorImSaImEE15_M_erase_at_endEPm
FNDA:1651,_ZNSt12_Vector_baseIhSaIhEE12_Vector_implD2Ev
FNDA:240,_ZNSt12_Vector_baseImSaImEE12_Vector_implD2Ev
FNDA:1603,_ZNSt12_Vector_baseIhSaIhEE12_Vector_implC2Ev
FNDA:48,_ZNSt12_Vector_baseImSaImEE12_Vector_implC2Ev
FNDA:48,_ZNSt12_Vector_baseIhSaIhEE12_Vector_implC2ERKS0_
FNDA:192,_ZNSt12_Vector_baseImSaImEE12_Vector_implC2ERKS0_
FNDA:3874,_ZNSt12_Vector_baseIhSaIhEE19_M_get_Tp_allocatorEv
FNDA:672,_ZNSt12_Vector_baseImSaImEE19_M_get_Tp_allocatorEv
FNDA:96,_ZNKSt12_Vector_baseImSaImEE19_M_get_Tp_allocatorEv
FNDA:1398,_ZNKSt12_Vector_baseIhSaIhEE19_M_get_Tp_allocatorEv
FNDA:1603,_ZNSt12_Vector_baseIhSaIhEEC2Ev
FNDA:48,_ZNSt12_Vector_baseImSaImEEC2Ev
FNDA:48,_ZNSt12_Vector_baseIhSaIhEEC2EmRKS0_
FNDA:192,_ZNSt12_Vector_baseImSaImEEC2EmRKS0_
FNDA:1651,_ZNSt12_Vector_baseIhSaIhEED2Ev
FNDA:240,_ZNSt12_Vector_baseImSaImEED2Ev
FNDA:739,_ZNSt12_Vector_baseIhSaIhEE11_M_allocateEm
FNDA:240,_ZNSt12_Vector_baseImSaImEE11_M_allocateEm
FNDA:2342,_ZNSt12_Vector_baseIhSaIhEE13_M_deallocateEPhm
FNDA:288,_ZNSt12_Vector_baseImSaImEE13_M_deallocateEPmm
FNDA:48,_ZNSt12_Vector_baseIhSaIhEE17_M_create_storageEm
FNDA:192,_ZNSt12_Vector_baseImSaImEE17_M_create_storageEm
FNDA:1603,_ZNSt6vectorIhSaIhEEC2Ev
FNDA:48,_ZNSt6vectorImSaImEEC2Ev
FNDA:32,_ZNSt6vectorIhSaIhEEC2EmRKS0_
FNDA:64,_ZNSt6vectorImSaImEEC2EmRKS0_
FNDA:128,_ZNSt6vectorImSaImEEC2EmRKmRKS0_
FNDA:16,_ZNSt6vectorIhSaIhEEC2ERKS1_
FNDA:1651,_ZNSt6vectorIhSaIhEED2Ev
FNDA:240,_ZNSt6vectorImSaImEED2Ev
FNDA:48,_ZNSt6vectorImSaImEE5beginEv
FNDA:172,_ZNSt6vectorIhSaIhEE5beginEv
FNDA:442,_ZNKSt6vectorIhSaIhEE5beginEv
FNDA:48,_ZNSt6vectorImSaImEE3endEv
FNDA:86,_ZNSt6vectorIhSaIhEE3endEv
FNDA:442,_ZNKSt6vectorIhSaIhEE3endEv
FNDA:86,_ZNKSt6vectorIhSaIhEE6cbeginEv
FNDA:26250,_ZNKSt6vectorIhSaIhEE4sizeEv
FNDA:13448,_ZNKSt6vectorImSaImEE4sizeEv
FNDA:1382,_ZNKSt6vectorIhSaIhEE8max_sizeEv
FNDA:96,_ZNKSt6vectorImSaImEE8max_sizeEv
FNDA:625,_ZNSt6vectorIhSaIhEE6resizeEm
FNDA:48,_ZNSt6vectorImSaImEE6resizeEmRKm
FNDA:426,_ZNKSt6vectorIhSaIhEE5emptyEv
FNDA:151249,_ZNSt6vectorIhSaIhEEixEm
FNDA:22979,_ZNSt6vectorImSaImEEixEm
FNDA:144,_ZNKSt6vectorIhSaIhEEixEm
FNDA:37635,_ZNKSt6vectorImSaImEEixEm
FNDA:86,_ZNSt6vectorIhSaIhEE6insertIPKhvEEN9__gnu_cxx17__normal_iteratorIPhS1_EENS6_IS4_S1_EET_SA_
FNDA:0,_ZNSt6vectorIhSaIhEE5clearEv
FNDA:48,_ZNSt6vectorImSaImEE5clearEv
FNDA:128,_ZNSt6vectorImSaImEE18_M_fill_initializeEmRKm
FNDA:32,_ZNSt6vectorIhSaIhEE21_M_default_initializeEm
FNDA:64,_ZNSt6vectorImSaImEE21_M_default_initializeEm
FNDA:86,_ZNSt6vectorIhSaIhEE18_M_insert_dispatchIPKhEEvN9__gnu_cxx17__normal_iteratorIPhS1_EET_S9_St12__false_type
FNDA:0,_ZNSt6vectorImSaImEE16_Temporary_valueC2IJRKmEEEPS1_DpOT_
FNDA:0,_ZNSt6vectorImSaImEE16_Temporary_valueD2Ev
FNDA:0,_ZNSt6vectorImSaImEE16_Temporary_value6_M_valEv
FNDA:0,_ZNSt6vectorImSaImEE16_Temporary_value6_M_ptrEv
FNDA:691,_ZNKSt6vectorIhSaIhEE12_M_check_lenEmPKc
FNDA:48,_ZNKSt6vectorImSaImEE12_M_check_lenEmPKc
FNDA:17,_ZNSt6vectorIhSaIhEE15_M_erase_at_endEPh
FNDA:48,_ZNSt6vectorImSaImEE15_M_erase_at_endEPm
FNF:63
FNH:58
DA:81,1891
DA:88,1651
DA:89,1651
DA:90,1651
DA:92,240
DA:93,240
DA:94,240
DA:115,4546
DA:116,4546
DA:119,1494
DA:120,1494
DA:126,1651
DA:127,1651
DA:136,240
DA:137,240
DA:138,240
DA:161,1891
DA:162,3782
DA:163,3782
DA:169,979
DA:172,979
DA:176,2630
DA:179,2630
DA:180,979
DA:181,2630
DA:185,240
DA:187,240
DA:188,240
DA:189,240
DA:190,240
DA:259,1651
DA:263,1651
DA:283,96
DA:284,96
DA:285,96
DA:295,128
DA:297,128
DA:298,128
DA:326,16
DA:328,16
DA:330,16
DA:331,16
DA:333,16
DA:334,16
DA:433,1891
DA:434,1891
DA:435,3782
DA:563,220
DA:564,220
DA:572,442
DA:573,442
DA:581,134
DA:582,134
DA:590,442
DA:591,442
DA:636,86
DA:637,86
DA:670,39698
DA:671,39698
DA:675,1478
DA:676,1478
DA:689,625
DA:691,625
DA:692,606
DA:693,19
DA:694,17
DA:695,625
DA:709,48
DA:711,48
DA:712,48
DA:713,0
DA:714,0
DA:715,48
DA:759,426
DA:760,426
DA:795,174228
DA:798,174228
DA:813,37779
DA:816,37779
DA:1128,86
DA:1131,86
DA:1132,86
DA:1134,86
DA:1247,48
DA:1248,48
DA:1339,128
DA:1341,128
DA:1342,128
DA:1343,128
DA:1344,128
DA:1349,96
DA:1351,96
DA:1352,96
DA:1353,96
DA:1354,96
DA:1408,86
DA:1411,86
DA:1412,172
DA:1413,86
DA:1455,0
DA:1457,0
DA:1459,0
DA:1461,0
DA:1462,0
DA:1465,0
DA:1469,0
DA:1502,739
DA:1504,739
DA:1505,0
DA:1507,739
DA:1508,739
DA:1516,65
DA:1518,65
DA:1519,65
DA:1520,65
LF:115
LH:105
end_of_record
SF:/usr/include/c++/7/bits/vector.tcc
FN:458,_ZNSt6vectorImSaImEE14_M_fill_insertEN9__gnu_cxx17__normal_iteratorIPmS1_EEmRKm
FN:554,_ZNSt6vectorIhSaIhEE17_M_default_appendEm
FN:630,_ZNSt6vectorIhSaIhEE15_M_range_insertIPKhEEvN9__gnu_cxx17__normal_iteratorIPhS1_EET_S9_St20forward_iterator_tag
FNDA:48,_ZNSt6vectorImSaImEE14_M_fill_insertEN9__gnu_cxx17__normal_iteratorIPmS1_EEmRKm
FNDA:606,_ZNSt6vectorIhSaIhEE17_M_default_appendEm
FNDA:86,_ZNSt6vectorIhSaIhEE15_M_range_insertIPKhEEvN9__gnu_cxx17__normal_iteratorIPhS1_EET_S9_St20forward_iterator_tag
FNF:3
FNH:3
DA:458,48
DA:461,48
DA:463,96
DA:464,48
DA:469,0
DA:470,0
DA:472,0
DA:473,0
DA:474,0
DA:476,0
DA:479,0
DA:480,0
DA:481,0
DA:483,0
DA:488,0
DA:489,0
DA:492,0
DA:493,0
DA:495,0
DA:496,0
DA:497,0
DA:502,48
DA:504,48
DA:505,48
DA:506,48
DA:510,48
DA:512,48
DA:513,48
DA:515,48
DA:517,48
DA:518,48
DA:520,48
DA:522,48
DA:524,48
DA:525,48
DA:527,0
DA:529,0
DA:530,0
DA:531,0
DA:532,0
DA:534,0
DA:535,0
DA:536,0
DA:537,0
DA:539,48
DA:540,48
DA:541,96
DA:542,48
DA:543,48
DA:544,48
DA:545,48
DA:546,48
DA:549,48
DA:554,606
DA:557,606
DA:559,1212
DA:560,606
DA:562,0
DA:563,0
DA:564,0
DA:568,606
DA:570,606
DA:571,606
DA:572,606
DA:575,606
DA:576,606
DA:577,606
DA:578,606
DA:580,606
DA:582,0
DA:584,0
DA:585,0
DA:586,0
DA:587,0
DA:588,0
DA:590,606
DA:591,606
DA:592,1212
DA:593,606
DA:594,606
DA:595,606
DA:596,606
DA:597,606
DA:600,606
DA:630,86
DA:634,86
DA:636,85
DA:637,170
DA:638,85
DA:640,0
DA:641,0
DA:642,0
DA:644,0
DA:647,0
DA:648,0
DA:649,0
DA:651,0
DA:655,0
DA:656,0
DA:657,0
DA:659,0
DA:660,0
DA:661,0
DA:664,0
DA:665,0
DA:666,0
DA:671,85
DA:673,85
DA:674,85
DA:677,85
DA:679,85
DA:680,85
DA:681,85
DA:684,85
DA:685,85
DA:687,85
DA:688,85
DA:690,0
DA:692,0
DA:693,0
DA:694,0
DA:695,0
DA:697,85
DA:698,85
DA:699,170
DA:700,85
DA:701,85
DA:702,85
DA:703,85
DA:704,85
DA:707,86
LF:131
LH:74
end_of_record
SF:/usr/include/c++/7/ext/alloc_traits.h
FN:94,_ZN9__gnu_cxx14__alloc_traitsISaIhEE17_S_select_on_copyERKS1_
FNDA:16,_ZN9__gnu_cxx14__alloc_traitsISaIhEE17_S_select_on_copyERKS1_
FNF:1
FNH:1
DA:94,16
DA:95,16
LF:2
LH:2
end_of_record
SF:/usr/include/c++/7/ext/new_allocator.h
FN:79,_ZN9__gnu_cxx13new_allocatorIhEC2Ev
FN:79,_ZN9__gnu_cxx13new_allocatorImEC2Ev
FN:81,_ZN9__gnu_cxx13new_allocatorImEC2ERKS1_
FN:81,_ZN9__gnu_cxx13new_allocatorIhEC2ERKS1_
FN:86,_ZN9__gnu_cxx13new_allocatorIhED2Ev
FN:86,_ZN9__gnu_cxx13new_allocatorImED2Ev
FN:99,_ZN9__gnu_cxx13new_allocatorImE8allocateEmPKv
FN:99,_ZN9__gnu_cxx13new_allocatorIhE8allocateEmPKv
FN:116,_ZN9__gnu_cxx13new_allocatorImE10deallocateEPmm
FN:116,_ZN9__gnu_cxx13new_allocatorIhE10deallocateEPhm
FN:129,_ZNK9__gnu_cxx13new_allocatorIhE8max_sizeEv
FN:129,_ZNK9__gnu_cxx13new_allocatorImE8max_sizeEv
FN:135,_ZN9__gnu_cxx13new_allocatorImE9constructImJRKmEEEvPT_DpOT0_
FN:140,_ZN9__gnu_cxx13new_allocatorImE7destroyImEEvPT_
FNDA:1635,_ZN9__gnu_cxx13new_allocatorIhEC2Ev
FNDA:240,_ZN9__gnu_cxx13new_allocatorImEC2Ev
FNDA:192,_ZN9__gnu_cxx13new_allocatorImEC2ERKS1_
FNDA:64,_ZN9__gnu_cxx13new_allocatorIhEC2ERKS1_
FNDA:1699,_ZN9__gnu_cxx13new_allocatorIhED2Ev
FNDA:432,_ZN9__gnu_cxx13new_allocatorImED2Ev
FNDA:739,_ZN9__gnu_cxx13new_allocatorIhE8allocateEmPKv
FNDA:240,_ZN9__gnu_cxx13new_allocatorImE8allocateEmPKv
FNDA:739,_ZN9__gnu_cxx13new_allocatorIhE10deallocateEPhm
FNDA:240,_ZN9__gnu_cxx13new_allocatorImE10deallocateEPmm
FNDA:2121,_ZNK9__gnu_cxx13new_allocatorIhE8max_sizeEv
FNDA:336,_ZNK9__gnu_cxx13new_allocatorImE8max_sizeEv
FNDA:0,_ZN9__gnu_cxx13new_allocatorImE9constructImJRKmEEEvPT_DpOT0_
FNDA:0,_ZN9__gnu_cxx13new_allocatorImE7destroyImEEvPT_
FNF:14
FNH:12
DA:79,1875
DA:81,256
DA:86,2131
DA:99,979
DA:101,979
DA:102,0
DA:111,979
DA:116,979
DA:125,979
DA:126,979
DA:129,2457
DA:130,2457
DA:135,0
DA:136,0
DA:140,0
LF:15
LH:11
end_of_record
SF:/usr/include/c++/7/iostream
DA:74,410
LF:1
LH:1
end_of_record
SF:/usr/include/c++/7/new
FN:168,_ZnwmPv
FNDA:0,_ZnwmPv
FNF:1
FNH:0
DA:168,0
DA:169,0
LF:2
LH:0
end_of_record
SF:/home/irons/fuzzing/eval/2coverage/picopng-cov/picopng.cpp
FN:25,_Z9decodePNGRSt6vectorIhSaIhEERmS3_PKhmb
FN:60,_ZZ9decodePNGRSt6vectorIhSaIhEERmS3_PKhmbEN4Zlib17readBitFromStreamES3_S5_
FN:61,_ZZ9decodePNGRSt6vectorIhSaIhEERmS3_PKhmbEN4Zlib18readBitsFromStreamES3_S5_m
FN:67,_ZZ9decodePNGRSt6vectorIhSaIhEERmS3_PKhmbEN4Zlib11HuffmanTreeD2Ev
FN:67,_ZZ9decodePNGRSt6vectorIhSaIhEERmS3_PKhmbEN4Zlib11HuffmanTreeC2Ev
FN:69,_ZZ9decodePNGRSt6vectorIhSaIhEERmS3_PKhmbEN4Zlib11HuffmanTree15makeFromLengthsERKS_ImSaImEEm
FN:91,_ZZ9decodePNGRSt6vectorIhSaIhEERmS3_PKhmbENK4Zlib11HuffmanTree6decodeERbS3_S3_m
FN:102,_ZZ9decodePNGRSt6vectorIhSaIhEERmS3_PKhmbEN4Zlib8InflatorC2Ev
FN:102,_ZZ9decodePNGRSt6vectorIhSaIhEERmS3_PKhmbEN4Zlib8InflatorD2Ev
FN:105,_ZZ9decodePNGRSt6vectorIhSaIhEERmS3_PKhmbEN4Zlib8Inflator7inflateES2_RKS1_m
FN:121,_ZZ9decodePNGRSt6vectorIhSaIhEERmS3_PKhmbEN4Zlib8Inflator18generateFixedTreesERZ9decodePNGS2_S3_S3_S5_mbENS6_11HuffmanTreeES9_
FN:130,_ZZ9decodePNGRSt6vectorIhSaIhEERmS3_PKhmbEN4Zlib8Inflator19huffmanDecodeSymbolES5_S3_RKZ9decodePNGS2_S3_S3_S5_mbENS6_11HuffmanTreeEm
FN:140,_ZZ9decodePNGRSt6vectorIhSaIhEERmS3_PKhmbEN4Zlib8Inflator21getTreeInflateDynamicERZ9decodePNGS2_S3_S3_S5_mbENS6_11HuffmanTreeES9_S5_S3_m
FN:194,_ZZ9decodePNGRSt6vectorIhSaIhEERmS3_PKhmbEN4Zlib8Inflator19inflateHuffmanBlockES2_S5_S3_S3_mm
FN:223,_ZZ9decodePNGRSt6vectorIhSaIhEERmS3_PKhmbEN4Zlib8Inflator20inflateNoCompressionES2_S5_S3_S3_m
FN:236,_ZZ9decodePNGRSt6vectorIhSaIhEERmS3_PKhmbEN4Zlib10decompressES2_RKS1_
FN:248,_ZZ9decodePNGRSt6vectorIhSaIhEERmS3_PKhmbEN3PNGD2Ev
FN:248,_ZZ9decodePNGRSt6vectorIhSaIhEERmS3_PKhmbEN3PNGC2Ev
FN:250,_ZZ9decodePNGRSt6vectorIhSaIhEERmS3_PKhmbEN3PNG4InfoC2Ev
FN:250,_ZZ9decodePNGRSt6vectorIhSaIhEERmS3_PKhmbEN3PNG4InfoD2Ev
FN:257,_ZZ9decodePNGRSt6vectorIhSaIhEERmS3_PKhmbEN3PNG6decodeES2_S5_mb
FN:368,_ZZ9decodePNGRSt6vectorIhSaIhEERmS3_PKhmbEN3PNG13readPngHeaderES5_m
FN:380,_ZZ9decodePNGRSt6vectorIhSaIhEERmS3_PKhmbEN3PNG16unFilterScanlineEPhS5_S5_mmm
FN:420,_ZZ9decodePNGRSt6vectorIhSaIhEERmS3_PKhmbEN3PNG9adam7PassEPhS7_S7_S5_mmmmmmmm
FN:438,_ZZ9decodePNGRSt6vectorIhSaIhEERmS3_PKhmbEN3PNG25readBitFromReversedStreamES3_S5_
FN:439,_ZZ9decodePNGRSt6vectorIhSaIhEERmS3_PKhmbEN3PNG26readBitsFromReversedStreamES3_S5_m
FN:445,_ZZ9decodePNGRSt6vectorIhSaIhEERmS3_PKhmbEN3PNG22setBitOfReversedStreamES3_Phm
FN:446,_ZZ9decodePNGRSt6vectorIhSaIhEERmS3_PKhmbEN3PNG12read32bitIntES5_
FN:447,_ZZ9decodePNGRSt6vectorIhSaIhEERmS3_PKhmbEN3PNG18checkColorValidityEmm
FN:454,_ZZ9decodePNGRSt6vectorIhSaIhEERmS3_PKhmbEN3PNG6getBppERKZ9decodePNGS2_S3_S3_S5_mbENS6_4InfoE
FN:460,_ZZ9decodePNGRSt6vectorIhSaIhEERmS3_PKhmbEN3PNG7convertES2_S5_RZ9decodePNGS2_S3_S3_S5_mbENS6_4InfoEmm
FN:525,_ZZ9decodePNGRSt6vectorIhSaIhEERmS3_PKhmbEN3PNG14paethPredictorEsss
FN:545,_Z8loadFileRSt6vectorIhSaIhEERKNSt7__cxx1112basic_stringIcSt11char_traitsIcESaIcEEE
FN:563,main
FN:579,_Z41__static_initialization_and_destruction_0ii
FN:579,_GLOBAL__sub_I__Z9decodePNGRSt6vectorIhSaIhEERmS3_PKhmb
FNDA:410,_Z9decodePNGRSt6vectorIhSaIhEERmS3_PKhmb
FNDA:17617,_ZZ9decodePNGRSt6vectorIhSaIhEERmS3_PKhmbEN4Zlib17readBitFromStreamES3_S5_
FNDA:1633,_ZZ9decodePNGRSt6vectorIhSaIhEERmS3_PKhmbEN4Zlib18readBitsFromStreamES3_S5_m
FNDA:48,_ZZ9decodePNGRSt6vectorIhSaIhEERmS3_PKhmbEN4Zlib11HuffmanTreeD2Ev
FNDA:48,_ZZ9decodePNGRSt6vectorIhSaIhEERmS3_PKhmbEN4Zlib11HuffmanTreeC2Ev
FNDA:48,_ZZ9decodePNGRSt6vectorIhSaIhEERmS3_PKhmbEN4Zlib11HuffmanTree15makeFromLengthsERKS_ImSaImEEm
FNDA:13112,_ZZ9decodePNGRSt6vectorIhSaIhEERmS3_PKhmbENK4Zlib11HuffmanTree6decodeERbS3_S3_m
FNDA:16,_ZZ9decodePNGRSt6vectorIhSaIhEERmS3_PKhmbEN4Zlib8InflatorD2Ev
FNDA:16,_ZZ9decodePNGRSt6vectorIhSaIhEERmS3_PKhmbEN4Zlib8InflatorC2Ev
FNDA:16,_ZZ9decodePNGRSt6vectorIhSaIhEERmS3_PKhmbEN4Zlib8Inflator7inflateES2_RKS1_m
FNDA:0,_ZZ9decodePNGRSt6vectorIhSaIhEERmS3_PKhmbEN4Zlib8Inflator18generateFixedTreesERZ9decodePNGS2_S3_S3_S5_mbENS6_11HuffmanTreeES9_
FNDA:3808,_ZZ9decodePNGRSt6vectorIhSaIhEERmS3_PKhmbEN4Zlib8Inflator19huffmanDecodeSymbolES5_S3_RKZ9decodePNGS2_S3_S3_S5_mbENS6_11HuffmanTreeEm
FNDA:16,_ZZ9decodePNGRSt6vectorIhSaIhEERmS3_PKhmbEN4Zlib8Inflator21getTreeInflateDynamicERZ9decodePNGS2_S3_S3_S5_mbENS6_11HuffmanTreeES9_S5_S3_m
FNDA:16,_ZZ9decodePNGRSt6vectorIhSaIhEERmS3_PKhmbEN4Zlib8Inflator19inflateHuffmanBlockES2_S5_S3_S3_mm
FNDA:0,_ZZ9decodePNGRSt6vectorIhSaIhEERmS3_PKhmbEN4Zlib8Inflator20inflateNoCompressionES2_S5_S3_S3_m
FNDA:16,_ZZ9decodePNGRSt6vectorIhSaIhEERmS3_PKhmbEN4Zlib10decompressES2_RKS1_
FNDA:410,_ZZ9decodePNGRSt6vectorIhSaIhEERmS3_PKhmbEN3PNGD2Ev
FNDA:410,_ZZ9decodePNGRSt6vectorIhSaIhEERmS3_PKhmbEN3PNGC2Ev
FNDA:410,_ZZ9decodePNGRSt6vectorIhSaIhEERmS3_PKhmbEN3PNG4InfoD2Ev
FNDA:410,_ZZ9decodePNGRSt6vectorIhSaIhEERmS3_PKhmbEN3PNG4InfoC2Ev
FNDA:410,_ZZ9decodePNGRSt6vectorIhSaIhEERmS3_PKhmbEN3PNG6decodeES2_S5_mb
FNDA:410,_ZZ9decodePNGRSt6vectorIhSaIhEERmS3_PKhmbEN3PNG13readPngHeaderES5_m
FNDA:496,_ZZ9decodePNGRSt6vectorIhSaIhEERmS3_PKhmbEN3PNG16unFilterScanlineEPhS5_S5_mmm
FNDA:0,_ZZ9decodePNGRSt6vectorIhSaIhEERmS3_PKhmbEN3PNG9adam7PassEPhS7_S7_S5_mmmmmmmm
FNDA:122880,_ZZ9decodePNGRSt6vectorIhSaIhEERmS3_PKhmbEN3PNG25readBitFromReversedStreamES3_S5_
FNDA:15872,_ZZ9decodePNGRSt6vectorIhSaIhEERmS3_PKhmbEN3PNG26readBitsFromReversedStreamES3_S5_m
FNDA:61440,_ZZ9decodePNGRSt6vectorIhSaIhEERmS3_PKhmbEN3PNG22setBitOfReversedStreamES3_Phm
FNDA:2246,_ZZ9decodePNGRSt6vectorIhSaIhEERmS3_PKhmbEN3PNG12read32bitIntES5_
FNDA:379,_ZZ9decodePNGRSt6vectorIhSaIhEERmS3_PKhmbEN3PNG18checkColorValidityEmm
FNDA:16,_ZZ9decodePNGRSt6vectorIhSaIhEERmS3_PKhmbEN3PNG6getBppERKZ9decodePNGS2_S3_S3_S5_mbENS6_4InfoE
FNDA:16,_ZZ9decodePNGRSt6vectorIhSaIhEERmS3_PKhmbEN3PNG7convertES2_S5_RZ9decodePNGS2_S3_S3_S5_mbENS6_4InfoEmm
FNDA:0,_ZZ9decodePNGRSt6vectorIhSaIhEERmS3_PKhmbEN3PNG14paethPredictorEsss
FNDA:410,_Z8loadFileRSt6vectorIhSaIhEERKNSt7__cxx1112basic_stringIcSt11char_traitsIcESaIcEEE
FNDA:410,main
FNDA:410,_GLOBAL__sub_I__Z9decodePNGRSt6vectorIhSaIhEERmS3_PKhmb
FNDA:410,_Z41__static_initialization_and_destruction_0ii
FNF:36
FNH:32
DA:25,410
DA:60,17617
DA:61,1633
DA:63,1633
DA:64,1633
DA:65,1633
DA:67,96
DA:69,48
DA:71,48
DA:72,96
DA:73,48
DA:74,48
DA:75,48
DA:76,48
DA:77,5472
DA:78,8573
DA:80,3149
DA:81,3149
DA:82,3149
DA:84,1270
DA:85,587
DA:87,1879
DA:89,48
DA:91,13112
DA:93,13112
DA:94,13112
DA:95,13112
DA:96,13112
DA:97,13112
DA:98,13112
DA:102,32
DA:105,16
DA:107,16
DA:108,16
DA:109,16
DA:110,48
DA:112,16
DA:113,16
DA:114,16
DA:115,16
DA:116,16
DA:117,16
DA:119,16
DA:121,0
DA:123,0
DA:124,0
DA:125,0
DA:126,0
DA:127,0
DA:128,0
DA:130,3808
DA:133,3808
DA:135,22416
DA:136,13112
DA:137,13112
DA:140,16
DA:142,32
DA:143,16
DA:144,16
DA:145,16
DA:146,16
DA:147,32
DA:148,16
DA:149,16
DA:150,16
DA:151,1490
DA:153,737
DA:154,737
DA:155,127
DA:157,0
DA:158,0
DA:160,0
DA:161,0
DA:162,0
DA:164,0
DA:165,0
DA:168,127
DA:170,39
DA:171,39
DA:172,198
DA:174,159
DA:175,159
DA:178,88
DA:180,88
DA:181,88
DA:182,3965
DA:184,3877
DA:185,3877
DA:188,0
DA:190,16
DA:191,16
DA:192,16
DA:194,16
DA:196,16
DA:197,16
DA:200,2502
DA:201,2486
DA:202,2470
DA:204,1885
DA:205,1885
DA:207,585
DA:209,585
DA:210,585
DA:211,585
DA:212,585
DA:213,585
DA:214,585
DA:215,585
DA:216,585
DA:217,585
DA:218,585
DA:219,585
DA:221,2470
DA:223,0
DA:225,0
DA:226,0
DA:227,0
DA:228,0
DA:229,0
DA:230,0
DA:231,0
DA:232,0
DA:233,0
DA:236,16
DA:238,32
DA:239,16
DA:240,16
DA:241,16
DA:242,16
DA:243,16
DA:244,16
DA:245,16
DA:248,820
DA:250,820
DA:257,410
DA:259,410
DA:260,804
DA:261,410
DA:262,373
DA:263,389
DA:264,373
DA:265,373
DA:266,2889
DA:268,1615
DA:269,1480
DA:270,1480
DA:271,1436
DA:272,1311
DA:274,86
DA:275,86
DA:277,1225
DA:278,1209
DA:280,166
DA:281,166
DA:282,166
DA:283,2176
DA:285,2010
DA:286,2010
DA:287,166
DA:289,1043
DA:291,77
DA:292,77
DA:294,62
DA:295,56
DA:297,15
DA:299,7
DA:300,2
DA:302,8
DA:304,5
DA:305,3
DA:306,3
DA:307,3
DA:308,3
DA:310,3
DA:314,966
DA:315,929
DA:316,929
DA:318,1258
DA:320,16
DA:321,32
DA:323,16
DA:324,16
DA:325,16
DA:326,16
DA:327,16
DA:329,16
DA:330,16
DA:331,0
DA:333,0
DA:334,0
DA:335,0
DA:336,0
DA:340,32
DA:341,512
DA:343,496
DA:344,496
DA:345,496
DA:346,496
DA:347,496
DA:353,0
DA:354,0
DA:355,0
DA:356,0
DA:357,0
DA:358,0
DA:359,0
DA:360,0
DA:362,16
DA:364,32
DA:365,16
DA:368,410
DA:370,410
DA:371,387
DA:372,385
DA:373,383
DA:374,383
DA:375,383
DA:376,380
DA:377,380
DA:378,379
DA:380,496
DA:382,496
DA:384,496
DA:385,0
DA:386,0
DA:387,0
DA:388,0
DA:389,0
DA:390,0
DA:391,0
DA:392,0
DA:393,0
DA:394,0
DA:396,0
DA:397,0
DA:401,0
DA:402,0
DA:404,0
DA:405,0
DA:406,0
DA:408,0
DA:409,0
DA:413,0
DA:414,0
DA:416,0
DA:417,0
DA:420,0
DA:422,0
DA:423,0
DA:424,0
DA:426,0
DA:427,0
DA:428,0
DA:429,0
DA:430,0
DA:432,0
DA:433,0
DA:435,0
DA:438,122880
DA:439,15872
DA:441,15872
DA:442,15872
DA:443,15872
DA:445,61440
DA:446,2246
DA:447,379
DA:449,379
DA:450,353
DA:451,305
DA:452,3
DA:454,16
DA:456,16
DA:457,16
DA:458,16
DA:460,16
DA:462,16
DA:463,16
DA:464,16
DA:465,16
DA:466,0
DA:468,0
DA:469,0
DA:470,0
DA:471,16
DA:472,0
DA:474,0
DA:475,0
DA:476,0
DA:477,16
DA:478,0
DA:480,0
DA:481,0
DA:482,0
DA:483,16
DA:484,0
DA:486,0
DA:487,0
DA:488,0
DA:489,16
DA:490,16
DA:491,0
DA:493,0
DA:494,0
DA:495,0
DA:496,16
DA:497,0
DA:499,0
DA:500,0
DA:501,0
DA:502,16
DA:503,0
DA:505,0
DA:506,0
DA:507,0
DA:508,16
DA:509,16
DA:510,0
DA:512,0
DA:513,0
DA:514,0
DA:515,0
DA:516,16
DA:517,15888
DA:519,15872
DA:520,15872
DA:521,15872
DA:523,16
DA:525,0
DA:527,0
DA:528,0
DA:531,820
DA:532,410
DA:533,820
DA:545,410
DA:547,820
DA:550,410
DA:551,410
DA:552,410
DA:555,410
DA:557,410
DA:558,410
DA:560,0
DA:561,410
DA:563,410
DA:565,410
DA:568,820
DA:569,410
DA:571,410
DA:574,410
DA:578,410
DA:579,1640
LF:351
LH:241
end_of_record
