TN:
SF:/usr/include/c++/7/bits/alloc_traits.h
FN:435,_ZNSt16allocator_traitsISaImEE8allocateERS0_m
FN:435,_ZNSt16allocator_traitsISaIhEE8allocateERS0_m
FN:461,_ZNSt16allocator_traitsISaIhEE10deallocateERS0_Phm
FN:461,_ZNSt16allocator_traitsISaImEE10deallocateERS0_Pmm
FN:474,_ZNSt16allocator_traitsISaImEE9constructImJRKmEEEvRS0_PT_DpOT0_
FN:486,_ZNSt16allocator_traitsISaImEE7destroyImEEvRS0_PT_
FN:495,_ZNSt16allocator_traitsISaImEE8max_sizeERKS0_
FN:495,_ZNSt16allocator_traitsISaIhEE8max_sizeERKS0_
FN:504,_ZNSt16allocator_traitsISaIhEE37select_on_container_copy_constructionERKS0_
FNDA:7,_ZNSt16allocator_traitsISaIhEE8allocateERS0_m
FNDA:10,_ZNSt16allocator_traitsISaImEE8allocateERS0_m
FNDA:7,_ZNSt16allocator_traitsISaIhEE10deallocateERS0_Phm
FNDA:10,_ZNSt16allocator_traitsISaImEE10deallocateERS0_Pmm
FNDA:0,_ZNSt16allocator_traitsISaImEE9constructImJRKmEEEvRS0_PT_DpOT0_
FNDA:0,_ZNSt16allocator_traitsISaImEE7destroyImEEvRS0_PT_
FNDA:12,_ZNSt16allocator_traitsISaIhEE8max_sizeERKS0_
FNDA:4,_ZNSt16allocator_traitsISaImEE8max_sizeERKS0_
FNDA:0,_ZNSt16allocator_traitsISaIhEE37select_on_container_copy_constructionERKS0_
FNF:9
FNH:6
DA:435,17
DA:436,17
DA:461,17
DA:462,17
DA:474,0
DA:475,0
DA:486,0
DA:487,0
DA:495,16
DA:496,16
DA:504,0
DA:505,0
LF:12
LH:6
end_of_record
SF:/usr/include/c++/7/bits/allocator.h
FN:131,_ZNSaIhEC2Ev
FN:131,_ZNSaImEC2Ev
FN:133,_ZNSaImEC2ERKS_
FN:133,_ZNSaIhEC2ERKS_
FN:139,_ZNSaImED2Ev
FN:139,_ZNSaIhED2Ev
FNDA:9,_ZNSaIhEC2Ev
FNDA:11,_ZNSaImEC2Ev
FNDA:8,_ZNSaImEC2ERKS_
FNDA:1,_ZNSaIhEC2ERKS_
FNDA:10,_ZNSaIhED2Ev
FNDA:19,_ZNSaImED2Ev
FNF:6
FNH:6
DA:131,20
DA:133,9
DA:134,9
DA:139,29
LF:4
LH:4
end_of_record
SF:/usr/include/c++/7/bits/cpp_type_traits.h
FN:408,_ZSt12__miter_baseIN9__gnu_cxx17__normal_iteratorIPKhSt6vectorIhSaIhEEEEET_S8_
FN:408,_ZSt12__miter_baseIPKhET_S2_
FN:408,_ZSt12__miter_baseIPhET_S1_
FN:408,_ZSt12__miter_baseIPmET_S1_
FNDA:0,_ZSt12__miter_baseIN9__gnu_cxx17__normal_iteratorIPKhSt6vectorIhSaIhEEEEET_S8_
FNDA:4,_ZSt12__miter_baseIPKhET_S2_
FNDA:16,_ZSt12__miter_baseIPhET_S1_
FNDA:8,_ZSt12__miter_baseIPmET_S1_
FNF:4
FNH:3
DA:408,28
DA:409,28
LF:2
LH:2
end_of_record
SF:/usr/include/c++/7/bits/ios_base.h
FN:83,_ZStanSt13_Ios_FmtflagsS_
FN:87,_ZStorSt13_Ios_FmtflagsS_
FN:95,_ZStcoSt13_Ios_Fmtflags
FN:99,_ZStoRRSt13_Ios_FmtflagsS_
FN:103,_ZStaNRSt13_Ios_FmtflagsS_
FN:129,_ZStorSt13_Ios_OpenmodeS_
FN:663,_ZNSt8ios_base4setfESt13_Ios_FmtflagsS0_
FN:1024,_ZSt3hexRSt8ios_base
FNDA:0,_ZStanSt13_Ios_FmtflagsS_
FNDA:0,_ZStorSt13_Ios_FmtflagsS_
FNDA:0,_ZStcoSt13_Ios_Fmtflags
FNDA:0,_ZStoRRSt13_Ios_FmtflagsS_
FNDA:0,_ZStaNRSt13_Ios_FmtflagsS_
FNDA:4,_ZStorSt13_Ios_OpenmodeS_
FNDA:0,_ZNSt8ios_base4setfESt13_Ios_FmtflagsS0_
FNDA:0,_ZSt3hexRSt8ios_base
FNF:8
FNH:1
DA:83,0
DA:84,0
DA:87,0
DA:88,0
DA:95,0
DA:96,0
DA:99,0
DA:100,0
DA:103,0
DA:104,0
DA:129,4
DA:130,4
DA:663,0
DA:665,0
DA:666,0
DA:667,0
DA:668,0
DA:1024,0
DA:1026,0
DA:1027,0
LF:20
LH:2
end_of_record
SF:/usr/include/c++/7/bits/move.h
FN:47,_ZSt11__addressofImEPT_RS0_
FN:73,_ZSt7forwardIRKmEOT_RNSt16remove_referenceIS2_E4typeE
FN:137,_ZSt9addressofImEPT_RS0_
FNDA:0,_ZSt11__addressofImEPT_RS0_
FNDA:0,_ZSt7forwardIRKmEOT_RNSt16remove_referenceIS2_E4typeE
FNDA:0,_ZSt9addressofImEPT_RS0_
FNF:3
FNH:0
DA:47,0
DA:48,0
DA:73,0
DA:74,0
DA:137,0
DA:138,0
LF:6
LH:0
end_of_record
SF:/usr/include/c++/7/bits/postypes.h
FN:137,_ZNKSt4fposI11__mbstate_tEcvlEv
FNDA:4,_ZNKSt4fposI11__mbstate_tEcvlEv
FNF:1
FNH:1
DA:137,4
LF:1
LH:1
end_of_record
SF:/usr/include/c++/7/bits/ptr_traits.h
FN:141,_ZNSt14pointer_traitsIPmE10pointer_toERm
FNDA:0,_ZNSt14pointer_traitsIPmE10pointer_toERm
FNF:1
FNH:0
DA:141,0
DA:142,0
LF:2
LH:0
end_of_record
SF:/usr/include/c++/7/bits/stl_algobase.h
FN:219,_ZSt3maxImERKT_S2_S2_
FN:277,_ZSt12__niter_baseIPKhET_S2_
FN:277,_ZSt12__niter_baseIPmET_S1_
FN:277,_ZSt12__niter_baseIPhET_S1_
FN:357,_ZNSt11__copy_moveILb1ELb1ESt26random_access_iterator_tagE8__copy_mIhEEPT_PKS3_S6_S4_
FN:357,_ZNSt11__copy_moveILb0ELb1ESt26random_access_iterator_tagE8__copy_mIhEEPT_PKS3_S6_S4_
FN:357,_ZNSt11__copy_moveILb1ELb1ESt26random_access_iterator_tagE8__copy_mImEEPT_PKS3_S6_S4_
FN:375,_ZSt13__copy_move_aILb0EPKhPhET1_T0_S4_S3_
FN:375,_ZSt13__copy_move_aILb1EPmS0_ET1_T0_S2_S1_
FN:375,_ZSt13__copy_move_aILb1EPhS0_ET1_T0_S2_S1_
FN:420,_ZSt14__copy_move_a2ILb0EN9__gnu_cxx17__normal_iteratorIPKhSt6vectorIhSaIhEEEEPhET1_T0_SA_S9_
FN:420,_ZSt14__copy_move_a2ILb0EPKhN9__gnu_cxx17__normal_iteratorIPhSt6vectorIhSaIhEEEEET1_T0_SA_S9_
FN:420,_ZSt14__copy_move_a2ILb1EPhS0_ET1_T0_S2_S1_
FN:420,_ZSt14__copy_move_a2ILb0EPKhPhET1_T0_S4_S3_
FN:420,_ZSt14__copy_move_a2ILb1EPmS0_ET1_T0_S2_S1_
FN:446,_ZSt4copyIPKhPhET0_T_S4_S3_
FN:446,_ZSt4copyISt13move_iteratorIPmES1_ET0_T_S4_S3_
FN:446,_ZSt4copyISt13move_iteratorIPhES1_ET0_T_S4_S3_
FN:446,_ZSt4copyIPKhN9__gnu_cxx17__normal_iteratorIPhSt6vectorIhSaIhEEEEET0_T_SA_S9_
FN:446,_ZSt4copyIN9__gnu_cxx17__normal_iteratorIPKhSt6vectorIhSaIhEEEEPhET0_T_SA_S9_
FN:559,_ZNSt20__copy_move_backwardILb1ELb1ESt26random_access_iterator_tagE13__copy_move_bImEEPT_PKS3_S6_S4_
FN:559,_ZNSt20__copy_move_backwardILb1ELb1ESt26random_access_iterator_tagE13__copy_move_bIhEEPT_PKS3_S6_S4_
FN:577,_ZSt22__copy_move_backward_aILb1EPhS0_ET1_T0_S2_S1_
FN:577,_ZSt22__copy_move_backward_aILb1EPmS0_ET1_T0_S2_S1_
FN:595,_ZSt23__copy_move_backward_a2ILb1EPmS0_ET1_T0_S2_S1_
FN:595,_ZSt23__copy_move_backward_a2ILb1EPhS0_ET1_T0_S2_S1_
FN:658,_ZSt13move_backwardIPmS0_ET0_T_S2_S1_
FN:658,_ZSt13move_backwardIPhS0_ET0_T_S2_S1_
FN:691,_ZSt8__fill_aIPmmEN9__gnu_cxx11__enable_ifIXsrSt11__is_scalarIT0_E7__valueEvE6__typeET_S8_RKS4_
FN:703,_ZSt8__fill_aIhEN9__gnu_cxx11__enable_ifIXsrSt9__is_byteIT_E7__valueEvE6__typeEPS3_S7_RKS3_
FN:724,_ZSt4fillIPmmEvT_S1_RKT0_
FN:749,_ZSt10__fill_n_aIPmmmEN9__gnu_cxx11__enable_ifIXsrSt11__is_scalarIT1_E7__valueET_E6__typeES6_T0_RKS4_
FN:761,_ZSt10__fill_n_aImhEN9__gnu_cxx11__enable_ifIXsrSt9__is_byteIT0_E7__valueEPS3_E6__typeES5_T_RKS3_
FN:784,_ZSt6fill_nIPmmmET_S1_T0_RKT1_
FN:784,_ZSt6fill_nIPhmhET_S1_T0_RKT1_
FNDA:8,_ZSt3maxImERKT_S2_S2_
FNDA:4,_ZSt12__niter_baseIPKhET_S2_
FNDA:31,_ZSt12__niter_baseIPhET_S1_
FNDA:22,_ZSt12__niter_baseIPmET_S1_
FNDA:8,_ZNSt11__copy_moveILb1ELb1ESt26random_access_iterator_tagE8__copy_mIhEEPT_PKS3_S6_S4_
FNDA:4,_ZNSt11__copy_moveILb1ELb1ESt26random_access_iterator_tagE8__copy_mImEEPT_PKS3_S6_S4_
FNDA:2,_ZNSt11__copy_moveILb0ELb1ESt26random_access_iterator_tagE8__copy_mIhEEPT_PKS3_S6_S4_
FNDA:8,_ZSt13__copy_move_aILb1EPhS0_ET1_T0_S2_S1_
FNDA:4,_ZSt13__copy_move_aILb1EPmS0_ET1_T0_S2_S1_
FNDA:2,_ZSt13__copy_move_aILb0EPKhPhET1_T0_S4_S3_
FNDA:2,_ZSt14__copy_move_a2ILb0EPKhPhET1_T0_S4_S3_
FNDA:8,_ZSt14__copy_move_a2ILb1EPhS0_ET1_T0_S2_S1_
FNDA:4,_ZSt14__copy_move_a2ILb1EPmS0_ET1_T0_S2_S1_
FNDA:0,_ZSt14__copy_move_a2ILb0EN9__gnu_cxx17__normal_iteratorIPKhSt6vectorIhSaIhEEEEPhET1_T0_SA_S9_
FNDA:0,_ZSt14__copy_move_a2ILb0EPKhN9__gnu_cxx17__normal_iteratorIPhSt6vectorIhSaIhEEEEET1_T0_SA_S9_
FNDA:2,_ZSt4copyIPKhPhET0_T_S4_S3_
FNDA:8,_ZSt4copyISt13move_iteratorIPhES1_ET0_T_S4_S3_
FNDA:4,_ZSt4copyISt13move_iteratorIPmES1_ET0_T_S4_S3_
FNDA:0,_ZSt4copyIN9__gnu_cxx17__normal_iteratorIPKhSt6vectorIhSaIhEEEEPhET0_T_SA_S9_
FNDA:0,_ZSt4copyIPKhN9__gnu_cxx17__normal_iteratorIPhSt6vectorIhSaIhEEEEET0_T_SA_S9_
FNDA:0,_ZNSt20__copy_move_backwardILb1ELb1ESt26random_access_iterator_tagE13__copy_move_bIhEEPT_PKS3_S6_S4_
FNDA:0,_ZNSt20__copy_move_backwardILb1ELb1ESt26random_access_iterator_tagE13__copy_move_bImEEPT_PKS3_S6_S4_
FNDA:0,_ZSt22__copy_move_backward_aILb1EPhS0_ET1_T0_S2_S1_
FNDA:0,_ZSt22__copy_move_backward_aILb1EPmS0_ET1_T0_S2_S1_
FNDA:0,_ZSt23__copy_move_backward_a2ILb1EPhS0_ET1_T0_S2_S1_
FNDA:0,_ZSt23__copy_move_backward_a2ILb1EPmS0_ET1_T0_S2_S1_
FNDA:0,_ZSt13move_backwardIPhS0_ET0_T_S2_S1_
FNDA:0,_ZSt13move_backwardIPmS0_ET0_T_S2_S1_
FNDA:0,_ZSt8__fill_aIPmmEN9__gnu_cxx11__enable_ifIXsrSt11__is_scalarIT0_E7__valueEvE6__typeET_S8_RKS4_
FNDA:5,_ZSt8__fill_aIhEN9__gnu_cxx11__enable_ifIXsrSt9__is_byteIT_E7__valueEvE6__typeEPS3_S7_RKS3_
FNDA:0,_ZSt4fillIPmmEvT_S1_RKT0_
FNDA:10,_ZSt10__fill_n_aIPmmmEN9__gnu_cxx11__enable_ifIXsrSt11__is_scalarIT1_E7__valueET_E6__typeES6_T0_RKS4_
FNDA:5,_ZSt10__fill_n_aImhEN9__gnu_cxx11__enable_ifIXsrSt9__is_byteIT0_E7__valueEPS3_E6__typeES5_T_RKS3_
FNDA:5,_ZSt6fill_nIPhmhET_S1_T0_RKT1_
FNDA:10,_ZSt6fill_nIPmmmET_S1_T0_RKT1_
FNF:35
FNH:21
DA:219,8
DA:224,8
DA:225,7
DA:226,1
DA:277,57
DA:278,57
DA:357,14
DA:366,14
DA:367,14
DA:368,3
DA:369,14
DA:375,14
DA:380,14
DA:386,14
DA:420,14
DA:422,14
DA:424,14
DA:446,14
DA:455,14
DA:456,14
DA:559,0
DA:568,0
DA:569,0
DA:570,0
DA:571,0
DA:577,0
DA:582,0
DA:590,0
DA:595,0
DA:598,0
DA:599,0
DA:658,0
DA:668,0
DA:670,0
DA:691,0
DA:694,0
DA:695,0
DA:696,0
DA:697,0
DA:703,5
DA:705,5
DA:706,5
DA:707,5
DA:708,5
DA:724,0
DA:731,0
DA:733,0
DA:749,10
DA:751,10
DA:752,1354
DA:753,1354
DA:754,1344
DA:755,10
DA:761,5
DA:763,5
DA:764,5
DA:784,15
DA:789,15
LF:58
LH:36
end_of_record
SF:/usr/include/c++/7/bits/stl_construct.h
FN:117,_ZNSt12_Destroy_auxILb1EE9__destroyIPhEEvT_S3_
FN:117,_ZNSt12_Destroy_auxILb1EE9__destroyIPmEEvT_S3_
FN:127,_ZSt8_DestroyIPmEvT_S1_
FN:127,_ZSt8_DestroyIPhEvT_S1_
FN:203,_ZSt8_DestroyIPhhEvT_S1_RSaIT0_E
FN:203,_ZSt8_DestroyIPmmEvT_S1_RSaIT0_E
FNDA:16,_ZNSt12_Destroy_auxILb1EE9__destroyIPhEEvT_S3_
FNDA:15,_ZNSt12_Destroy_auxILb1EE9__destroyIPmEEvT_S3_
FNDA:16,_ZSt8_DestroyIPhEvT_S1_
FNDA:15,_ZSt8_DestroyIPmEvT_S1_
FNDA:16,_ZSt8_DestroyIPhhEvT_S1_RSaIT0_E
FNDA:15,_ZSt8_DestroyIPmmEvT_S1_RSaIT0_E
FNF:6
FNH:6
DA:117,31
DA:127,31
DA:137,31
DA:138,31
DA:203,31
DA:206,31
DA:207,31
LF:7
LH:7
end_of_record
SF:/usr/include/c++/7/bits/stl_iterator.h
FN:782,_ZN9__gnu_cxx17__normal_iteratorIPhSt6vectorIhSaIhEEEC2ERKS1_
FN:782,_ZN9__gnu_cxx17__normal_iteratorIPmSt6vectorImSaImEEEC2ERKS1_
FN:782,_ZN9__gnu_cxx17__normal_iteratorIPKhSt6vectorIhSaIhEEEC2ERKS2_
FN:787,_ZN9__gnu_cxx17__normal_iteratorIPKhSt6vectorIhSaIhEEEC2IPhEERKNS0_IT_NS_11__enable_ifIXsrSt10__are_sameIS9_S8_E7__valueES5_E6__typeEEE
FN:835,_ZNK9__gnu_cxx17__normal_iteratorIPhSt6vectorIhSaIhEEEplEl
FN:847,_ZNK9__gnu_cxx17__normal_iteratorIPKhSt6vectorIhSaIhEEE4baseEv
FN:847,_ZNK9__gnu_cxx17__normal_iteratorIPhSt6vectorIhSaIhEEE4baseEv
FN:847,_ZNK9__gnu_cxx17__normal_iteratorIPmSt6vectorImSaImEEE4baseEv
FN:869,_ZN9__gnu_cxxeqIPKhSt6vectorIhSaIhEEEEbRKNS_17__normal_iteratorIT_T0_EESB_
FN:965,_ZN9__gnu_cxxmiIPmSt6vectorImSaImEEEENS_17__normal_iteratorIT_T0_E15difference_typeERKS8_SB_
FN:965,_ZN9__gnu_cxxmiIPKhSt6vectorIhSaIhEEEENS_17__normal_iteratorIT_T0_E15difference_typeERKS9_SC_
FN:965,_ZN9__gnu_cxxmiIPhSt6vectorIhSaIhEEEENS_17__normal_iteratorIT_T0_E15difference_typeERKS8_SB_
FN:986,_ZSt12__niter_baseIPhSt6vectorIhSaIhEEET_N9__gnu_cxx17__normal_iteratorIS4_T0_EE
FN:986,_ZSt12__niter_baseIPKhSt6vectorIhSaIhEEET_N9__gnu_cxx17__normal_iteratorIS5_T0_EE
FN:1039,_ZNSt13move_iteratorIPhEC2ES0_
FN:1039,_ZNSt13move_iteratorIPmEC2ES0_
FN:1048,_ZNKSt13move_iteratorIPmE4baseEv
FN:1048,_ZNKSt13move_iteratorIPhE4baseEv
FN:1207,_ZSt18make_move_iteratorIPmESt13move_iteratorIT_ES2_
FN:1207,_ZSt18make_move_iteratorIPhESt13move_iteratorIT_ES2_
FN:1224,_ZSt32__make_move_if_noexcept_iteratorImSt13move_iteratorIPmEET0_PT_
FN:1224,_ZSt32__make_move_if_noexcept_iteratorIhSt13move_iteratorIPhEET0_PT_
FN:1244,_ZSt12__miter_baseIPmEDTcl12__miter_basecldtfp_4baseEEESt13move_iteratorIT_E
FN:1244,_ZSt12__miter_baseIPhEDTcl12__miter_basecldtfp_4baseEEESt13move_iteratorIT_E
FNDA:6,_ZN9__gnu_cxx17__normal_iteratorIPKhSt6vectorIhSaIhEEEC2ERKS2_
FNDA:4,_ZN9__gnu_cxx17__normal_iteratorIPmSt6vectorImSaImEEEC2ERKS1_
FNDA:10,_ZN9__gnu_cxx17__normal_iteratorIPhSt6vectorIhSaIhEEEC2ERKS1_
FNDA:2,_ZN9__gnu_cxx17__normal_iteratorIPKhSt6vectorIhSaIhEEEC2IPhEERKNS0_IT_NS_11__enable_ifIXsrSt10__are_sameIS9_S8_E7__valueES5_E6__typeEEE
FNDA:4,_ZNK9__gnu_cxx17__normal_iteratorIPhSt6vectorIhSaIhEEEplEl
FNDA:8,_ZNK9__gnu_cxx17__normal_iteratorIPKhSt6vectorIhSaIhEEE4baseEv
FNDA:8,_ZNK9__gnu_cxx17__normal_iteratorIPmSt6vectorImSaImEEE4baseEv
FNDA:6,_ZNK9__gnu_cxx17__normal_iteratorIPhSt6vectorIhSaIhEEE4baseEv
FNDA:2,_ZN9__gnu_cxxeqIPKhSt6vectorIhSaIhEEEEbRKNS_17__normal_iteratorIT_T0_EESB_
FNDA:0,_ZN9__gnu_cxxmiIPhSt6vectorIhSaIhEEEENS_17__normal_iteratorIT_T0_E15difference_typeERKS8_SB_
FNDA:2,_ZN9__gnu_cxxmiIPmSt6vectorImSaImEEEENS_17__normal_iteratorIT_T0_E15difference_typeERKS8_SB_
FNDA:2,_ZN9__gnu_cxxmiIPKhSt6vectorIhSaIhEEEENS_17__normal_iteratorIT_T0_E15difference_typeERKS9_SC_
FNDA:0,_ZSt12__niter_baseIPKhSt6vectorIhSaIhEEET_N9__gnu_cxx17__normal_iteratorIS5_T0_EE
FNDA:0,_ZSt12__niter_baseIPhSt6vectorIhSaIhEEET_N9__gnu_cxx17__normal_iteratorIS4_T0_EE
FNDA:16,_ZNSt13move_iteratorIPhEC2ES0_
FNDA:8,_ZNSt13move_iteratorIPmEC2ES0_
FNDA:16,_ZNKSt13move_iteratorIPhE4baseEv
FNDA:8,_ZNKSt13move_iteratorIPmE4baseEv
FNDA:0,_ZSt18make_move_iteratorIPhESt13move_iteratorIT_ES2_
FNDA:0,_ZSt18make_move_iteratorIPmESt13move_iteratorIT_ES2_
FNDA:16,_ZSt32__make_move_if_noexcept_iteratorIhSt13move_iteratorIPhEET0_PT_
FNDA:8,_ZSt32__make_move_if_noexcept_iteratorImSt13move_iteratorIPmEET0_PT_
FNDA:16,_ZSt12__miter_baseIPhEDTcl12__miter_basecldtfp_4baseEEESt13move_iteratorIT_E
FNDA:8,_ZSt12__miter_baseIPmEDTcl12__miter_basecldtfp_4baseEEESt13move_iteratorIT_E
FNF:24
FNH:19
DA:782,20
DA:783,20
DA:787,2
DA:791,2
DA:835,4
DA:836,4
DA:847,22
DA:848,22
DA:869,2
DA:872,2
DA:965,4
DA:968,4
DA:986,0
DA:987,0
DA:1039,24
DA:1040,24
DA:1048,24
DA:1049,24
DA:1207,0
DA:1208,0
DA:1224,24
DA:1225,24
DA:1244,24
DA:1246,24
LF:24
LH:20
end_of_record
SF:/usr/include/c++/7/bits/stl_iterator_base_funcs.h
FN:98,_ZSt10__distanceIPKhENSt15iterator_traitsIT_E15difference_typeES3_S3_St26random_access_iterator_tag
FN:138,_ZSt8distanceIPKhENSt15iterator_traitsIT_E15difference_typeES3_S3_
FN:174,_ZSt9__advanceIPKhlEvRT_T0_St26random_access_iterator_tag
FN:197,_ZSt7advanceIPKhmEvRT_T0_
FNDA:2,_ZSt10__distanceIPKhENSt15iterator_traitsIT_E15difference_typeES3_S3_St26random_access_iterator_tag
FNDA:2,_ZSt8distanceIPKhENSt15iterator_traitsIT_E15difference_typeES3_S3_
FNDA:0,_ZSt9__advanceIPKhlEvRT_T0_St26random_access_iterator_tag
FNDA:0,_ZSt7advanceIPKhmEvRT_T0_
FNF:4
FNH:2
DA:98,2
DA:104,2
DA:138,2
DA:141,2
DA:142,4
DA:174,0
DA:180,0
DA:181,0
DA:197,0
DA:200,0
DA:201,0
DA:202,0
LF:12
LH:5
end_of_record
SF:/usr/include/c++/7/bits/stl_iterator_base_types.h
FN:205,_ZSt19__iterator_categoryIPKhENSt15iterator_traitsIT_E17iterator_categoryERKS3_
FNDA:4,_ZSt19__iterator_categoryIPKhENSt15iterator_traitsIT_E17iterator_categoryERKS3_
FNF:1
FNH:1
DA:205,4
DA:206,4
LF:2
LH:2
end_of_record
SF:/usr/include/c++/7/bits/stl_uninitialized.h
FN:99,_ZNSt20__uninitialized_copyILb1EE13__uninit_copyIN9__gnu_cxx17__normal_iteratorIPKhSt6vectorIhSaIhEEEEPhEET0_T_SC_SB_
FN:99,_ZNSt20__uninitialized_copyILb1EE13__uninit_copyISt13move_iteratorIPhES3_EET0_T_S6_S5_
FN:99,_ZNSt20__uninitialized_copyILb1EE13__uninit_copyISt13move_iteratorIPmES3_EET0_T_S6_S5_
FN:99,_ZNSt20__uninitialized_copyILb1EE13__uninit_copyIPKhPhEET0_T_S6_S5_
FN:115,_ZSt18uninitialized_copyIN9__gnu_cxx17__normal_iteratorIPKhSt6vectorIhSaIhEEEEPhET0_T_SA_S9_
FN:115,_ZSt18uninitialized_copyISt13move_iteratorIPmES1_ET0_T_S4_S3_
FN:115,_ZSt18uninitialized_copyIPKhPhET0_T_S4_S3_
FN:115,_ZSt18uninitialized_copyISt13move_iteratorIPhES1_ET0_T_S4_S3_
FN:226,_ZNSt22__uninitialized_fill_nILb1EE15__uninit_fill_nIPmmmEET_S3_T0_RKT1_
FN:244,_ZSt20uninitialized_fill_nIPmmmET_S1_T0_RKT1_
FN:287,_ZSt22__uninitialized_copy_aISt13move_iteratorIPhES1_hET0_T_S4_S3_RSaIT1_E
FN:287,_ZSt22__uninitialized_copy_aIPKhPhhET0_T_S4_S3_RSaIT1_E
FN:287,_ZSt22__uninitialized_copy_aIN9__gnu_cxx17__normal_iteratorIPKhSt6vectorIhSaIhEEEEPhhET0_T_SA_S9_RSaIT1_E
FN:287,_ZSt22__uninitialized_copy_aISt13move_iteratorIPmES1_mET0_T_S4_S3_RSaIT1_E
FN:294,_ZSt22__uninitialized_move_aIPhS0_SaIhEET0_T_S3_S2_RT1_
FN:294,_ZSt22__uninitialized_move_aIPmS0_SaImEET0_T_S3_S2_RT1_
FN:305,_ZSt34__uninitialized_move_if_noexcept_aIPhS0_SaIhEET0_T_S3_S2_RT1_
FN:305,_ZSt34__uninitialized_move_if_noexcept_aIPmS0_SaImEET0_T_S3_S2_RT1_
FN:364,_ZSt24__uninitialized_fill_n_aIPmmmmET_S1_T0_RKT1_RSaIT2_E
FN:543,_ZNSt27__uninitialized_default_n_1ILb1EE18__uninit_default_nIPmmEET_S3_T0_
FN:543,_ZNSt27__uninitialized_default_n_1ILb1EE18__uninit_default_nIPhmEET_S3_T0_
FN:574,_ZSt25__uninitialized_default_nIPmmET_S1_T0_
FN:574,_ZSt25__uninitialized_default_nIPhmET_S1_T0_
FN:643,_ZSt27__uninitialized_default_n_aIPhmhET_S1_T0_RSaIT1_E
FN:643,_ZSt27__uninitialized_default_n_aIPmmmET_S1_T0_RSaIT1_E
FNDA:2,_ZNSt20__uninitialized_copyILb1EE13__uninit_copyIPKhPhEET0_T_S6_S5_
FNDA:8,_ZNSt20__uninitialized_copyILb1EE13__uninit_copyISt13move_iteratorIPhES3_EET0_T_S6_S5_
FNDA:4,_ZNSt20__uninitialized_copyILb1EE13__uninit_copyISt13move_iteratorIPmES3_EET0_T_S6_S5_
FNDA:0,_ZNSt20__uninitialized_copyILb1EE13__uninit_copyIN9__gnu_cxx17__normal_iteratorIPKhSt6vectorIhSaIhEEEEPhEET0_T_SC_SB_
FNDA:2,_ZSt18uninitialized_copyIPKhPhET0_T_S4_S3_
FNDA:8,_ZSt18uninitialized_copyISt13move_iteratorIPhES1_ET0_T_S4_S3_
FNDA:4,_ZSt18uninitialized_copyISt13move_iteratorIPmES1_ET0_T_S4_S3_
FNDA:0,_ZSt18uninitialized_copyIN9__gnu_cxx17__normal_iteratorIPKhSt6vectorIhSaIhEEEEPhET0_T_SA_S9_
FNDA:8,_ZNSt22__uninitialized_fill_nILb1EE15__uninit_fill_nIPmmmEET_S3_T0_RKT1_
FNDA:8,_ZSt20uninitialized_fill_nIPmmmET_S1_T0_RKT1_
FNDA:2,_ZSt22__uninitialized_copy_aIPKhPhhET0_T_S4_S3_RSaIT1_E
FNDA:8,_ZSt22__uninitialized_copy_aISt13move_iteratorIPhES1_hET0_T_S4_S3_RSaIT1_E
FNDA:4,_ZSt22__uninitialized_copy_aISt13move_iteratorIPmES1_mET0_T_S4_S3_RSaIT1_E
FNDA:0,_ZSt22__uninitialized_copy_aIN9__gnu_cxx17__normal_iteratorIPKhSt6vectorIhSaIhEEEEPhhET0_T_SA_S9_RSaIT1_E
FNDA:0,_ZSt22__uninitialized_move_aIPhS0_SaIhEET0_T_S3_S2_RT1_
FNDA:0,_ZSt22__uninitialized_move_aIPmS0_SaImEET0_T_S3_S2_RT1_
FNDA:8,_ZSt34__uninitialized_move_if_noexcept_aIPhS0_SaIhEET0_T_S3_S2_RT1_
FNDA:4,_ZSt34__uninitialized_move_if_noexcept_aIPmS0_SaImEET0_T_S3_S2_RT1_
FNDA:8,_ZSt24__uninitialized_fill_n_aIPmmmmET_S1_T0_RKT1_RSaIT2_E
FNDA:5,_ZNSt27__uninitialized_default_n_1ILb1EE18__uninit_default_nIPhmEET_S3_T0_
FNDA:2,_ZNSt27__uninitialized_default_n_1ILb1EE18__uninit_default_nIPmmEET_S3_T0_
FNDA:5,_ZSt25__uninitialized_default_nIPhmET_S1_T0_
FNDA:2,_ZSt25__uninitialized_default_nIPmmET_S1_T0_
FNDA:5,_ZSt27__uninitialized_default_n_aIPhmhET_S1_T0_RSaIT1_E
FNDA:2,_ZSt27__uninitialized_default_n_aIPmmmET_S1_T0_RSaIT1_E
FNF:25
FNH:20
DA:99,14
DA:101,14
DA:115,14
DA:128,14
DA:134,14
DA:226,8
DA:228,8
DA:244,8
DA:252,8
DA:255,8
DA:287,14
DA:289,14
DA:294,0
DA:297,0
DA:299,0
DA:305,12
DA:311,12
DA:312,12
DA:364,8
DA:366,8
DA:543,7
DA:548,7
DA:574,7
DA:579,7
DA:583,7
DA:643,7
DA:645,7
LF:27
LH:24
end_of_record
SF:/usr/include/c++/7/bits/stl_vector.h
FN:81,_ZNSt12_Vector_baseImSaImEE12_Vector_implD2Ev
FN:81,_ZNSt12_Vector_baseIhSaIhEE12_Vector_implD2Ev
FN:88,_ZNSt12_Vector_baseImSaImEE12_Vector_implC2Ev
FN:88,_ZNSt12_Vector_baseIhSaIhEE12_Vector_implC2Ev
FN:92,_ZNSt12_Vector_baseIhSaIhEE12_Vector_implC2ERKS0_
FN:92,_ZNSt12_Vector_baseImSaImEE12_Vector_implC2ERKS0_
FN:115,_ZNSt12_Vector_baseImSaImEE19_M_get_Tp_allocatorEv
FN:115,_ZNSt12_Vector_baseIhSaIhEE19_M_get_Tp_allocatorEv
FN:119,_ZNKSt12_Vector_baseIhSaIhEE19_M_get_Tp_allocatorEv
FN:119,_ZNKSt12_Vector_baseImSaImEE19_M_get_Tp_allocatorEv
FN:126,_ZNSt12_Vector_baseIhSaIhEEC2Ev
FN:126,_ZNSt12_Vector_baseImSaImEEC2Ev
FN:136,_ZNSt12_Vector_baseImSaImEEC2EmRKS0_
FN:136,_ZNSt12_Vector_baseIhSaIhEEC2EmRKS0_
FN:161,_ZNSt12_Vector_baseIhSaIhEED2Ev
FN:161,_ZNSt12_Vector_baseImSaImEED2Ev
FN:169,_ZNSt12_Vector_baseImSaImEE11_M_allocateEm
FN:169,_ZNSt12_Vector_baseIhSaIhEE11_M_allocateEm
FN:176,_ZNSt12_Vector_baseImSaImEE13_M_deallocateEPmm
FN:176,_ZNSt12_Vector_baseIhSaIhEE13_M_deallocateEPhm
FN:185,_ZNSt12_Vector_baseIhSaIhEE17_M_create_storageEm
FN:185,_ZNSt12_Vector_baseImSaImEE17_M_create_storageEm
FN:259,_ZNSt6vectorIhSaIhEEC2Ev
FN:259,_ZNSt6vectorImSaImEEC2Ev
FN:283,_ZNSt6vectorImSaImEEC2EmRKS0_
FN:283,_ZNSt6vectorIhSaIhEEC2EmRKS0_
FN:295,_ZNSt6vectorImSaImEEC2EmRKmRKS0_
FN:326,_ZNSt6vectorIhSaIhEEC2ERKS1_
FN:433,_ZNSt6vectorImSaImEED2Ev
FN:433,_ZNSt6vectorIhSaIhEED2Ev
FN:563,_ZNSt6vectorIhSaIhEE5beginEv
FN:563,_ZNSt6vectorImSaImEE5beginEv
FN:572,_ZNKSt6vectorIhSaIhEE5beginEv
FN:581,_ZNSt6vectorIhSaIhEE3endEv
FN:581,_ZNSt6vectorImSaImEE3endEv
FN:590,_ZNKSt6vectorIhSaIhEE3endEv
FN:636,_ZNKSt6vectorIhSaIhEE6cbeginEv
FN:670,_ZNKSt6vectorImSaImEE4sizeEv
FN:670,_ZNKSt6vectorIhSaIhEE4sizeEv
FN:675,_ZNKSt6vectorImSaImEE8max_sizeEv
FN:675,_ZNKSt6vectorIhSaIhEE8max_sizeEv
FN:689,_ZNSt6vectorIhSaIhEE6resizeEm
FN:709,_ZNSt6vectorImSaImEE6resizeEmRKm
FN:759,_ZNKSt6vectorIhSaIhEE5emptyEv
FN:795,_ZNSt6vectorIhSaIhEEixEm
FN:795,_ZNSt6vectorImSaImEEixEm
FN:813,_ZNKSt6vectorIhSaIhEEixEm
FN:813,_ZNKSt6vectorImSaImEEixEm
FN:1128,_ZNSt6vectorIhSaIhEE6insertIPKhvEEN9__gnu_cxx17__normal_iteratorIPhS1_EENS6_IS4_S1_EET_SA_
FN:1247,_ZNSt6vectorImSaImEE5clearEv
FN:1247,_ZNSt6vectorIhSaIhEE5clearEv
FN:1339,_ZNSt6vectorImSaImEE18_M_fill_initializeEmRKm
FN:1349,_ZNSt6vectorImSaImEE21_M_default_initializeEm
FN:1349,_ZNSt6vectorIhSaIhEE21_M_default_initializeEm
FN:1408,_ZNSt6vectorIhSaIhEE18_M_insert_dispatchIPKhEEvN9__gnu_cxx17__normal_iteratorIPhS1_EET_S9_St12__false_type
FN:1455,_ZNSt6vectorImSaImEE16_Temporary_valueC2IJRKmEEEPS1_DpOT_
FN:1461,_ZNSt6vectorImSaImEE16_Temporary_valueD2Ev
FN:1465,_ZNSt6vectorImSaImEE16_Temporary_value6_M_valEv
FN:1469,_ZNSt6vectorImSaImEE16_Temporary_value6_M_ptrEv
FN:1502,_ZNKSt6vectorIhSaIhEE12_M_check_lenEmPKc
FN:1502,_ZNKSt6vectorImSaImEE12_M_check_lenEmPKc
FN:1516,_ZNSt6vectorImSaImEE15_M_erase_at_endEPm
FN:1516,_ZNSt6vectorIhSaIhEE15_M_erase_at_endEPh
FNDA:9,_ZNSt12_Vector_baseIhSaIhEE12_Vector_implD2Ev
FNDA:11,_ZNSt12_Vector_baseImSaImEE12_Vector_implD2Ev
FNDA:8,_ZNSt12_Vector_baseIhSaIhEE12_Vector_implC2Ev
FNDA:3,_ZNSt12_Vector_baseImSaImEE12_Vector_implC2Ev
FNDA:1,_ZNSt12_Vector_baseIhSaIhEE12_Vector_implC2ERKS0_
FNDA:8,_ZNSt12_Vector_baseImSaImEE12_Vector_implC2ERKS0_
FNDA:31,_ZNSt12_Vector_baseIhSaIhEE19_M_get_Tp_allocatorEv
FNDA:29,_ZNSt12_Vector_baseImSaImEE19_M_get_Tp_allocatorEv
FNDA:4,_ZNKSt12_Vector_baseImSaImEE19_M_get_Tp_allocatorEv
FNDA:12,_ZNKSt12_Vector_baseIhSaIhEE19_M_get_Tp_allocatorEv
FNDA:8,_ZNSt12_Vector_baseIhSaIhEEC2Ev
FNDA:3,_ZNSt12_Vector_baseImSaImEEC2Ev
FNDA:1,_ZNSt12_Vector_baseIhSaIhEEC2EmRKS0_
FNDA:8,_ZNSt12_Vector_baseImSaImEEC2EmRKS0_
FNDA:9,_ZNSt12_Vector_baseIhSaIhEED2Ev
FNDA:11,_ZNSt12_Vector_baseImSaImEED2Ev
FNDA:7,_ZNSt12_Vector_baseIhSaIhEE11_M_allocateEm
FNDA:10,_ZNSt12_Vector_baseImSaImEE11_M_allocateEm
FNDA:15,_ZNSt12_Vector_baseIhSaIhEE13_M_deallocateEPhm
FNDA:13,_ZNSt12_Vector_baseImSaImEE13_M_deallocateEPmm
FNDA:1,_ZNSt12_Vector_baseIhSaIhEE17_M_create_storageEm
FNDA:8,_ZNSt12_Vector_baseImSaImEE17_M_create_storageEm
FNDA:8,_ZNSt6vectorIhSaIhEEC2Ev
FNDA:3,_ZNSt6vectorImSaImEEC2Ev
FNDA:1,_ZNSt6vectorIhSaIhEEC2EmRKS0_
FNDA:2,_ZNSt6vectorImSaImEEC2EmRKS0_
FNDA:6,_ZNSt6vectorImSaImEEC2EmRKmRKS0_
FNDA:0,_ZNSt6vectorIhSaIhEEC2ERKS1_
FNDA:9,_ZNSt6vectorIhSaIhEED2Ev
FNDA:11,_ZNSt6vectorImSaImEED2Ev
FNDA:2,_ZNSt6vectorImSaImEE5beginEv
FNDA:4,_ZNSt6vectorIhSaIhEE5beginEv
FNDA:2,_ZNKSt6vectorIhSaIhEE5beginEv
FNDA:2,_ZNSt6vectorImSaImEE3endEv
FNDA:2,_ZNSt6vectorIhSaIhEE3endEv
FNDA:2,_ZNKSt6vectorIhSaIhEE3endEv
FNDA:2,_ZNKSt6vectorIhSaIhEE6cbeginEv
FNDA:47,_ZNKSt6vectorIhSaIhEE4sizeEv
FNDA:41,_ZNKSt6vectorImSaImEE4sizeEv
FNDA:12,_ZNKSt6vectorIhSaIhEE8max_sizeEv
FNDA:4,_ZNKSt6vectorImSaImEE8max_sizeEv
FNDA:5,_ZNSt6vectorIhSaIhEE6resizeEm
FNDA:2,_ZNSt6vectorImSaImEE6resizeEmRKm
FNDA:2,_ZNKSt6vectorIhSaIhEE5emptyEv
FNDA:16,_ZNSt6vectorIhSaIhEEixEm
FNDA:8842,_ZNSt6vectorImSaImEEixEm
FNDA:9,_ZNKSt6vectorIhSaIhEEixEm
FNDA:7047,_ZNKSt6vectorImSaImEEixEm
FNDA:2,_ZNSt6vectorIhSaIhEE6insertIPKhvEEN9__gnu_cxx17__normal_iteratorIPhS1_EENS6_IS4_S1_EET_SA_
FNDA:0,_ZNSt6vectorIhSaIhEE5clearEv
FNDA:2,_ZNSt6vectorImSaImEE5clearEv
FNDA:6,_ZNSt6vectorImSaImEE18_M_fill_initializeEmRKm
FNDA:1,_ZNSt6vectorIhSaIhEE21_M_default_initializeEm
FNDA:2,_ZNSt6vectorImSaImEE21_M_default_initializeEm
FNDA:2,_ZNSt6vectorIhSaIhEE18_M_insert_dispatchIPKhEEvN9__gnu_cxx17__normal_iteratorIPhS1_EET_S9_St12__false_type
FNDA:0,_ZNSt6vectorImSaImEE16_Temporary_valueC2IJRKmEEEPS1_DpOT_
FNDA:0,_ZNSt6vectorImSaImEE16_Temporary_valueD2Ev
FNDA:0,_ZNSt6vectorImSaImEE16_Temporary_value6_M_valEv
FNDA:0,_ZNSt6vectorImSaImEE16_Temporary_value6_M_ptrEv
FNDA:6,_ZNKSt6vectorIhSaIhEE12_M_check_lenEmPKc
FNDA:2,_ZNKSt6vectorImSaImEE12_M_check_lenEmPKc
FNDA:1,_ZNSt6vectorIhSaIhEE15_M_erase_at_endEPh
FNDA:2,_ZNSt6vectorImSaImEE15_M_erase_at_endEPm
FNF:63
FNH:57
DA:81,20
DA:88,11
DA:89,11
DA:90,11
DA:92,9
DA:93,9
DA:94,9
DA:115,60
DA:116,60
DA:119,16
DA:120,16
DA:126,11
DA:127,11
DA:136,9
DA:137,9
DA:138,9
DA:161,20
DA:162,40
DA:163,40
DA:169,17
DA:172,17
DA:176,28
DA:179,28
DA:180,17
DA:181,28
DA:185,9
DA:187,9
DA:188,9
DA:189,9
DA:190,9
DA:259,11
DA:263,11
DA:283,3
DA:284,3
DA:285,3
DA:295,6
DA:297,6
DA:298,6
DA:326,0
DA:328,0
DA:330,0
DA:331,0
DA:333,0
DA:334,0
DA:433,20
DA:434,20
DA:435,40
DA:563,6
DA:564,6
DA:572,2
DA:573,2
DA:581,4
DA:582,4
DA:590,2
DA:591,2
DA:636,2
DA:637,2
DA:670,88
DA:671,88
DA:675,16
DA:676,16
DA:689,5
DA:691,5
DA:692,4
DA:693,1
DA:694,1
DA:695,5
DA:709,2
DA:711,2
DA:712,2
DA:713,0
DA:714,0
DA:715,2
DA:759,2
DA:760,2
DA:795,8858
DA:798,8858
DA:813,7056
DA:816,7056
DA:1128,2
DA:1131,2
DA:1132,2
DA:1134,2
DA:1247,2
DA:1248,2
DA:1339,6
DA:1341,6
DA:1342,6
DA:1343,6
DA:1344,6
DA:1349,3
DA:1351,3
DA:1352,3
DA:1353,3
DA:1354,3
DA:1408,2
DA:1411,2
DA:1412,4
DA:1413,2
DA:1455,0
DA:1457,0
DA:1459,0
DA:1461,0
DA:1462,0
DA:1465,0
DA:1469,0
DA:1502,8
DA:1504,8
DA:1505,0
DA:1507,8
DA:1508,8
DA:1516,3
DA:1518,3
DA:1519,3
DA:1520,3
LF:115
LH:99
end_of_record
SF:/usr/include/c++/7/bits/vector.tcc
FN:458,_ZNSt6vectorImSaImEE14_M_fill_insertEN9__gnu_cxx17__normal_iteratorIPmS1_EEmRKm
FN:554,_ZNSt6vectorIhSaIhEE17_M_default_appendEm
FN:630,_ZNSt6vectorIhSaIhEE15_M_range_insertIPKhEEvN9__gnu_cxx17__normal_iteratorIPhS1_EET_S9_St20forward_iterator_tag
FNDA:2,_ZNSt6vectorImSaImEE14_M_fill_insertEN9__gnu_cxx17__normal_iteratorIPmS1_EEmRKm
FNDA:4,_ZNSt6vectorIhSaIhEE17_M_default_appendEm
FNDA:2,_ZNSt6vectorIhSaIhEE15_M_range_insertIPKhEEvN9__gnu_cxx17__normal_iteratorIPhS1_EET_S9_St20forward_iterator_tag
FNF:3
FNH:3
DA:458,2
DA:461,2
DA:463,4
DA:464,2
DA:469,0
DA:470,0
DA:472,0
DA:473,0
DA:474,0
DA:476,0
DA:479,0
DA:480,0
DA:481,0
DA:483,0
DA:488,0
DA:489,0
DA:492,0
DA:493,0
DA:495,0
DA:496,0
DA:497,0
DA:502,2
DA:504,2
DA:505,2
DA:506,2
DA:510,2
DA:512,2
DA:513,2
DA:515,2
DA:517,2
DA:518,2
DA:520,2
DA:522,2
DA:524,2
DA:525,2
DA:527,0
DA:529,0
DA:530,0
DA:531,0
DA:532,0
DA:534,0
DA:535,0
DA:536,0
DA:537,0
DA:539,2
DA:540,2
DA:541,4
DA:542,2
DA:543,2
DA:544,2
DA:545,2
DA:546,2
DA:549,2
DA:554,4
DA:557,4
DA:559,8
DA:560,4
DA:562,0
DA:563,0
DA:564,0
DA:568,4
DA:570,4
DA:571,4
DA:572,4
DA:575,4
DA:576,4
DA:577,4
DA:578,4
DA:580,4
DA:582,0
DA:584,0
DA:585,0
DA:586,0
DA:587,0
DA:588,0
DA:590,4
DA:591,4
DA:592,8
DA:593,4
DA:594,4
DA:595,4
DA:596,4
DA:597,4
DA:600,4
DA:630,2
DA:634,2
DA:636,2
DA:637,4
DA:638,2
DA:640,0
DA:641,0
DA:642,0
DA:644,0
DA:647,0
DA:648,0
DA:649,0
DA:651,0
DA:655,0
DA:656,0
DA:657,0
DA:659,0
DA:660,0
DA:661,0
DA:664,0
DA:665,0
DA:666,0
DA:671,2
DA:673,2
DA:674,2
DA:677,2
DA:679,2
DA:680,2
DA:681,2
DA:684,2
DA:685,2
DA:687,2
DA:688,2
DA:690,0
DA:692,0
DA:693,0
DA:694,0
DA:695,0
DA:697,2
DA:698,2
DA:699,4
DA:700,2
DA:701,2
DA:702,2
DA:703,2
DA:704,2
DA:707,2
LF:131
LH:74
end_of_record
SF:/usr/include/c++/7/ext/alloc_traits.h
FN:94,_ZN9__gnu_cxx14__alloc_traitsISaIhEE17_S_select_on_copyERKS1_
FNDA:0,_ZN9__gnu_cxx14__alloc_traitsISaIhEE17_S_select_on_copyERKS1_
FNF:1
FNH:0
DA:94,0
DA:95,0
LF:2
LH:0
end_of_record
SF:/usr/include/c++/7/ext/new_allocator.h
FN:79,_ZN9__gnu_cxx13new_allocatorIhEC2Ev
FN:79,_ZN9__gnu_cxx13new_allocatorImEC2Ev
FN:81,_ZN9__gnu_cxx13new_allocatorIhEC2ERKS1_
FN:81,_ZN9__gnu_cxx13new_allocatorImEC2ERKS1_
FN:86,_ZN9__gnu_cxx13new_allocatorIhED2Ev
FN:86,_ZN9__gnu_cxx13new_allocatorImED2Ev
FN:99,_ZN9__gnu_cxx13new_allocatorIhE8allocateEmPKv
FN:99,_ZN9__gnu_cxx13new_allocatorImE8allocateEmPKv
FN:116,_ZN9__gnu_cxx13new_allocatorIhE10deallocateEPhm
FN:116,_ZN9__gnu_cxx13new_allocatorImE10deallocateEPmm
FN:129,_ZNK9__gnu_cxx13new_allocatorIhE8max_sizeEv
FN:129,_ZNK9__gnu_cxx13new_allocatorImE8max_sizeEv
FN:135,_ZN9__gnu_cxx13new_allocatorImE9constructImJRKmEEEvPT_DpOT0_
FN:140,_ZN9__gnu_cxx13new_allocatorImE7destroyImEEvPT_
FNDA:9,_ZN9__gnu_cxx13new_allocatorIhEC2Ev
FNDA:11,_ZN9__gnu_cxx13new_allocatorImEC2Ev
FNDA:8,_ZN9__gnu_cxx13new_allocatorImEC2ERKS1_
FNDA:1,_ZN9__gnu_cxx13new_allocatorIhEC2ERKS1_
FNDA:10,_ZN9__gnu_cxx13new_allocatorIhED2Ev
FNDA:19,_ZN9__gnu_cxx13new_allocatorImED2Ev
FNDA:7,_ZN9__gnu_cxx13new_allocatorIhE8allocateEmPKv
FNDA:10,_ZN9__gnu_cxx13new_allocatorImE8allocateEmPKv
FNDA:7,_ZN9__gnu_cxx13new_allocatorIhE10deallocateEPhm
FNDA:10,_ZN9__gnu_cxx13new_allocatorImE10deallocateEPmm
FNDA:19,_ZNK9__gnu_cxx13new_allocatorIhE8max_sizeEv
FNDA:14,_ZNK9__gnu_cxx13new_allocatorImE8max_sizeEv
FNDA:0,_ZN9__gnu_cxx13new_allocatorImE9constructImJRKmEEEvPT_DpOT0_
FNDA:0,_ZN9__gnu_cxx13new_allocatorImE7destroyImEEvPT_
FNF:14
FNH:12
DA:79,20
DA:81,9
DA:86,29
DA:99,17
DA:101,17
DA:102,0
DA:111,17
DA:116,17
DA:125,17
DA:126,17
DA:129,33
DA:130,33
DA:135,0
DA:136,0
DA:140,0
LF:15
LH:11
end_of_record
SF:/usr/include/c++/7/iostream
DA:74,2
LF:1
LH:1
end_of_record
SF:/usr/include/c++/7/new
FN:168,_ZnwmPv
FNDA:0,_ZnwmPv
FNF:1
FNH:0
DA:168,0
DA:169,0
LF:2
LH:0
end_of_record
SF:/home/irons/fuzzing/eval/2coverage/picopng-cov/picopng.cpp
FN:25,_Z9decodePNGRSt6vectorIhSaIhEERmS3_PKhmb
FN:60,_ZZ9decodePNGRSt6vectorIhSaIhEERmS3_PKhmbEN4Zlib17readBitFromStreamES3_S5_
FN:61,_ZZ9decodePNGRSt6vectorIhSaIhEERmS3_PKhmbEN4Zlib18readBitsFromStreamES3_S5_m
FN:67,_ZZ9decodePNGRSt6vectorIhSaIhEERmS3_PKhmbEN4Zlib11HuffmanTreeD2Ev
FN:67,_ZZ9decodePNGRSt6vectorIhSaIhEERmS3_PKhmbEN4Zlib11HuffmanTreeC2Ev
FN:69,_ZZ9decodePNGRSt6vectorIhSaIhEERmS3_PKhmbEN4Zlib11HuffmanTree15makeFromLengthsERKS_ImSaImEEm
FN:91,_ZZ9decodePNGRSt6vectorIhSaIhEERmS3_PKhmbENK4Zlib11HuffmanTree6decodeERbS3_S3_m
FN:102,_ZZ9decodePNGRSt6vectorIhSaIhEERmS3_PKhmbEN4Zlib8InflatorD2Ev
FN:102,_ZZ9decodePNGRSt6vectorIhSaIhEERmS3_PKhmbEN4Zlib8InflatorC2Ev
FN:105,_ZZ9decodePNGRSt6vectorIhSaIhEERmS3_PKhmbEN4Zlib8Inflator7inflateES2_RKS1_m
FN:121,_ZZ9decodePNGRSt6vectorIhSaIhEERmS3_PKhmbEN4Zlib8Inflator18generateFixedTreesERZ9decodePNGS2_S3_S3_S5_mbENS6_11HuffmanTreeES9_
FN:130,_ZZ9decodePNGRSt6vectorIhSaIhEERmS3_PKhmbEN4Zlib8Inflator19huffmanDecodeSymbolES5_S3_RKZ9decodePNGS2_S3_S3_S5_mbENS6_11HuffmanTreeEm
FN:140,_ZZ9decodePNGRSt6vectorIhSaIhEERmS3_PKhmbEN4Zlib8Inflator21getTreeInflateDynamicERZ9decodePNGS2_S3_S3_S5_mbENS6_11HuffmanTreeES9_S5_S3_m
FN:194,_ZZ9decodePNGRSt6vectorIhSaIhEERmS3_PKhmbEN4Zlib8Inflator19inflateHuffmanBlockES2_S5_S3_S3_mm
FN:223,_ZZ9decodePNGRSt6vectorIhSaIhEERmS3_PKhmbEN4Zlib8Inflator20inflateNoCompressionES2_S5_S3_S3_m
FN:236,_ZZ9decodePNGRSt6vectorIhSaIhEERmS3_PKhmbEN4Zlib10decompressES2_RKS1_
FN:248,_ZZ9decodePNGRSt6vectorIhSaIhEERmS3_PKhmbEN3PNGC2Ev
FN:248,_ZZ9decodePNGRSt6vectorIhSaIhEERmS3_PKhmbEN3PNGD2Ev
FN:250,_ZZ9decodePNGRSt6vectorIhSaIhEERmS3_PKhmbEN3PNG4InfoC2Ev
FN:250,_ZZ9decodePNGRSt6vectorIhSaIhEERmS3_PKhmbEN3PNG4InfoD2Ev
FN:257,_ZZ9decodePNGRSt6vectorIhSaIhEERmS3_PKhmbEN3PNG6decodeES2_S5_mb
FN:368,_ZZ9decodePNGRSt6vectorIhSaIhEERmS3_PKhmbEN3PNG13readPngHeaderES5_m
FN:380,_ZZ9decodePNGRSt6vectorIhSaIhEERmS3_PKhmbEN3PNG16unFilterScanlineEPhS5_S5_mmm
FN:420,_ZZ9decodePNGRSt6vectorIhSaIhEERmS3_PKhmbEN3PNG9adam7PassEPhS7_S7_S5_mmmmmmmm
FN:438,_ZZ9decodePNGRSt6vectorIhSaIhEERmS3_PKhmbEN3PNG25readBitFromReversedStreamES3_S5_
FN:439,_ZZ9decodePNGRSt6vectorIhSaIhEERmS3_PKhmbEN3PNG26readBitsFromReversedStreamES3_S5_m
FN:445,_ZZ9decodePNGRSt6vectorIhSaIhEERmS3_PKhmbEN3PNG22setBitOfReversedStreamES3_Phm
FN:446,_ZZ9decodePNGRSt6vectorIhSaIhEERmS3_PKhmbEN3PNG12read32bitIntES5_
FN:447,_ZZ9decodePNGRSt6vectorIhSaIhEERmS3_PKhmbEN3PNG18checkColorValidityEmm
FN:454,_ZZ9decodePNGRSt6vectorIhSaIhEERmS3_PKhmbEN3PNG6getBppERKZ9decodePNGS2_S3_S3_S5_mbENS6_4InfoE
FN:460,_ZZ9decodePNGRSt6vectorIhSaIhEERmS3_PKhmbEN3PNG7convertES2_S5_RZ9decodePNGS2_S3_S3_S5_mbENS6_4InfoEmm
FN:525,_ZZ9decodePNGRSt6vectorIhSaIhEERmS3_PKhmbEN3PNG14paethPredictorEsss
FN:545,_Z8loadFileRSt6vectorIhSaIhEERKNSt7__cxx1112basic_stringIcSt11char_traitsIcESaIcEEE
FN:563,main
FN:579,_Z41__static_initialization_and_destruction_0ii
FN:579,_GLOBAL__sub_I__Z9decodePNGRSt6vectorIhSaIhEERmS3_PKhmb
FNDA:2,_Z9decodePNGRSt6vectorIhSaIhEERmS3_PKhmb
FNDA:30,_ZZ9decodePNGRSt6vectorIhSaIhEERmS3_PKhmbEN4Zlib17readBitFromStreamES3_S5_
FNDA:2,_ZZ9decodePNGRSt6vectorIhSaIhEERmS3_PKhmbEN4Zlib18readBitsFromStreamES3_S5_m
FNDA:3,_ZZ9decodePNGRSt6vectorIhSaIhEERmS3_PKhmbEN4Zlib11HuffmanTreeD2Ev
FNDA:3,_ZZ9decodePNGRSt6vectorIhSaIhEERmS3_PKhmbEN4Zlib11HuffmanTreeC2Ev
FNDA:2,_ZZ9decodePNGRSt6vectorIhSaIhEERmS3_PKhmbEN4Zlib11HuffmanTree15makeFromLengthsERKS_ImSaImEEm
FNDA:27,_ZZ9decodePNGRSt6vectorIhSaIhEERmS3_PKhmbENK4Zlib11HuffmanTree6decodeERbS3_S3_m
FNDA:1,_ZZ9decodePNGRSt6vectorIhSaIhEERmS3_PKhmbEN4Zlib8InflatorD2Ev
FNDA:1,_ZZ9decodePNGRSt6vectorIhSaIhEERmS3_PKhmbEN4Zlib8InflatorC2Ev
FNDA:1,_ZZ9decodePNGRSt6vectorIhSaIhEERmS3_PKhmbEN4Zlib8Inflator7inflateES2_RKS1_m
FNDA:1,_ZZ9decodePNGRSt6vectorIhSaIhEERmS3_PKhmbEN4Zlib8Inflator18generateFixedTreesERZ9decodePNGS2_S3_S3_S5_mbENS6_11HuffmanTreeES9_
FNDA:4,_ZZ9decodePNGRSt6vectorIhSaIhEERmS3_PKhmbEN4Zlib8Inflator19huffmanDecodeSymbolES5_S3_RKZ9decodePNGS2_S3_S3_S5_mbENS6_11HuffmanTreeEm
FNDA:0,_ZZ9decodePNGRSt6vectorIhSaIhEERmS3_PKhmbEN4Zlib8Inflator21getTreeInflateDynamicERZ9decodePNGS2_S3_S3_S5_mbENS6_11HuffmanTreeES9_S5_S3_m
FNDA:1,_ZZ9decodePNGRSt6vectorIhSaIhEERmS3_PKhmbEN4Zlib8Inflator19inflateHuffmanBlockES2_S5_S3_S3_mm
FNDA:0,_ZZ9decodePNGRSt6vectorIhSaIhEERmS3_PKhmbEN4Zlib8Inflator20inflateNoCompressionES2_S5_S3_S3_m
FNDA:1,_ZZ9decodePNGRSt6vectorIhSaIhEERmS3_PKhmbEN4Zlib10decompressES2_RKS1_
FNDA:2,_ZZ9decodePNGRSt6vectorIhSaIhEERmS3_PKhmbEN3PNGD2Ev
FNDA:2,_ZZ9decodePNGRSt6vectorIhSaIhEERmS3_PKhmbEN3PNGC2Ev
FNDA:2,_ZZ9decodePNGRSt6vectorIhSaIhEERmS3_PKhmbEN3PNG4InfoD2Ev
FNDA:2,_ZZ9decodePNGRSt6vectorIhSaIhEERmS3_PKhmbEN3PNG4InfoC2Ev
FNDA:2,_ZZ9decodePNGRSt6vectorIhSaIhEERmS3_PKhmbEN3PNG6decodeES2_S5_mb
FNDA:2,_ZZ9decodePNGRSt6vectorIhSaIhEERmS3_PKhmbEN3PNG13readPngHeaderES5_m
FNDA:1,_ZZ9decodePNGRSt6vectorIhSaIhEERmS3_PKhmbEN3PNG16unFilterScanlineEPhS5_S5_mmm
FNDA:0,_ZZ9decodePNGRSt6vectorIhSaIhEERmS3_PKhmbEN3PNG9adam7PassEPhS7_S7_S5_mmmmmmmm
FNDA:0,_ZZ9decodePNGRSt6vectorIhSaIhEERmS3_PKhmbEN3PNG25readBitFromReversedStreamES3_S5_
FNDA:0,_ZZ9decodePNGRSt6vectorIhSaIhEERmS3_PKhmbEN3PNG26readBitsFromReversedStreamES3_S5_m
FNDA:0,_ZZ9decodePNGRSt6vectorIhSaIhEERmS3_PKhmbEN3PNG22setBitOfReversedStreamES3_Phm
FNDA:7,_ZZ9decodePNGRSt6vectorIhSaIhEERmS3_PKhmbEN3PNG12read32bitIntES5_
FNDA:2,_ZZ9decodePNGRSt6vectorIhSaIhEERmS3_PKhmbEN3PNG18checkColorValidityEmm
FNDA:1,_ZZ9decodePNGRSt6vectorIhSaIhEERmS3_PKhmbEN3PNG6getBppERKZ9decodePNGS2_S3_S3_S5_mbENS6_4InfoE
FNDA:0,_ZZ9decodePNGRSt6vectorIhSaIhEERmS3_PKhmbEN3PNG7convertES2_S5_RZ9decodePNGS2_S3_S3_S5_mbENS6_4InfoEmm
FNDA:0,_ZZ9decodePNGRSt6vectorIhSaIhEERmS3_PKhmbEN3PNG14paethPredictorEsss
FNDA:2,_Z8loadFileRSt6vectorIhSaIhEERKNSt7__cxx1112basic_stringIcSt11char_traitsIcESaIcEEE
FNDA:2,main
FNDA:2,_GLOBAL__sub_I__Z9decodePNGRSt6vectorIhSaIhEERmS3_PKhmb
FNDA:2,_Z41__static_initialization_and_destruction_0ii
FNF:36
FNH:28
DA:25,2
DA:60,30
DA:61,2
DA:63,2
DA:64,2
DA:65,2
DA:67,6
DA:69,2
DA:71,2
DA:72,4
DA:73,2
DA:74,2
DA:75,2
DA:76,2
DA:77,322
DA:78,2872
DA:80,2552
DA:81,2552
DA:82,2552
DA:84,636
DA:85,316
DA:87,1916
DA:89,2
DA:91,27
DA:93,27
DA:94,27
DA:95,27
DA:96,27
DA:97,27
DA:98,27
DA:102,2
DA:105,1
DA:107,1
DA:108,1
DA:109,1
DA:110,3
DA:112,1
DA:113,1
DA:114,1
DA:115,1
DA:116,1
DA:117,1
DA:119,1
DA:121,1
DA:123,2
DA:124,1
DA:125,1
DA:126,1
DA:127,1
DA:128,1
DA:130,4
DA:133,4
DA:135,50
DA:136,27
DA:137,27
DA:140,0
DA:142,0
DA:143,0
DA:144,0
DA:145,0
DA:146,0
DA:147,0
DA:148,0
DA:149,0
DA:150,0
DA:151,0
DA:153,0
DA:154,0
DA:155,0
DA:157,0
DA:158,0
DA:160,0
DA:161,0
DA:162,0
DA:164,0
DA:165,0
DA:168,0
DA:170,0
DA:171,0
DA:172,0
DA:174,0
DA:175,0
DA:178,0
DA:180,0
DA:181,0
DA:182,0
DA:184,0
DA:185,0
DA:188,0
DA:190,0
DA:191,0
DA:192,0
DA:194,1
DA:196,1
DA:197,0
DA:200,4
DA:201,3
DA:202,2
DA:204,1
DA:205,1
DA:207,1
DA:209,1
DA:210,1
DA:211,1
DA:212,1
DA:213,1
DA:214,1
DA:215,1
DA:216,1
DA:217,1
DA:218,1
DA:219,1
DA:221,2
DA:223,0
DA:225,0
DA:226,0
DA:227,0
DA:228,0
DA:229,0
DA:230,0
DA:231,0
DA:232,0
DA:233,0
DA:236,1
DA:238,2
DA:239,1
DA:240,1
DA:241,1
DA:242,1
DA:243,1
DA:244,1
DA:245,1
DA:248,4
DA:250,4
DA:257,2
DA:259,2
DA:260,3
DA:261,2
DA:262,2
DA:263,3
DA:264,2
DA:265,2
DA:266,8
DA:268,4
DA:269,3
DA:270,3
DA:271,3
DA:272,3
DA:274,2
DA:275,2
DA:277,1
DA:278,0
DA:280,0
DA:281,0
DA:282,0
DA:283,0
DA:285,0
DA:286,0
DA:287,0
DA:289,0
DA:291,0
DA:292,0
DA:294,0
DA:295,0
DA:297,0
DA:299,0
DA:300,0
DA:302,0
DA:304,0
DA:305,0
DA:306,0
DA:307,0
DA:308,0
DA:310,0
DA:314,0
DA:315,0
DA:316,0
DA:318,3
DA:320,1
DA:321,2
DA:323,1
DA:324,1
DA:325,1
DA:326,1
DA:327,1
DA:329,1
DA:330,1
DA:331,2
DA:333,1
DA:334,1
DA:335,1
DA:336,1
DA:340,0
DA:341,0
DA:343,0
DA:344,0
DA:345,0
DA:346,0
DA:347,0
DA:353,0
DA:354,0
DA:355,0
DA:356,0
DA:357,0
DA:358,0
DA:359,0
DA:360,0
DA:362,1
DA:364,0
DA:365,0
DA:368,2
DA:370,2
DA:371,2
DA:372,2
DA:373,2
DA:374,2
DA:375,2
DA:376,2
DA:377,2
DA:378,2
DA:380,1
DA:382,1
DA:384,1
DA:385,0
DA:386,0
DA:387,0
DA:388,0
DA:389,0
DA:390,0
DA:391,0
DA:392,0
DA:393,0
DA:394,0
DA:396,0
DA:397,0
DA:401,0
DA:402,0
DA:404,0
DA:405,0
DA:406,0
DA:408,0
DA:409,0
DA:413,0
DA:414,0
DA:416,0
DA:417,0
DA:420,0
DA:422,0
DA:423,0
DA:424,0
DA:426,0
DA:427,0
DA:428,0
DA:429,0
DA:430,0
DA:432,0
DA:433,0
DA:435,0
DA:438,0
DA:439,0
DA:441,0
DA:442,0
DA:443,0
DA:445,0
DA:446,7
DA:447,2
DA:449,2
DA:450,0
DA:451,0
DA:452,0
DA:454,1
DA:456,1
DA:457,1
DA:458,0
DA:460,0
DA:462,0
DA:463,0
DA:464,0
DA:465,0
DA:466,0
DA:468,0
DA:469,0
DA:470,0
DA:471,0
DA:472,0
DA:474,0
DA:475,0
DA:476,0
DA:477,0
DA:478,0
DA:480,0
DA:481,0
DA:482,0
DA:483,0
DA:484,0
DA:486,0
DA:487,0
DA:488,0
DA:489,0
DA:490,0
DA:491,0
DA:493,0
DA:494,0
DA:495,0
DA:496,0
DA:497,0
DA:499,0
DA:500,0
DA:501,0
DA:502,0
DA:503,0
DA:505,0
DA:506,0
DA:507,0
DA:508,0
DA:509,0
DA:510,0
DA:512,0
DA:513,0
DA:514,0
DA:515,0
DA:516,0
DA:517,0
DA:519,0
DA:520,0
DA:521,0
DA:523,0
DA:525,0
DA:527,0
DA:528,0
DA:531,4
DA:532,2
DA:533,4
DA:545,2
DA:547,4
DA:550,2
DA:551,2
DA:552,2
DA:555,2
DA:557,2
DA:558,2
DA:560,0
DA:561,2
DA:563,2
DA:565,2
DA:568,4
DA:569,2
DA:571,2
DA:574,2
DA:578,2
DA:579,8
LF:351
LH:158
end_of_record
