TN:
SF:/usr/include/c++/7/bits/alloc_traits.h
FN:435,_ZNSt16allocator_traitsISaImEE8allocateERS0_m
FN:435,_ZNSt16allocator_traitsISaIhEE8allocateERS0_m
FN:461,_ZNSt16allocator_traitsISaIhEE10deallocateERS0_Phm
FN:461,_ZNSt16allocator_traitsISaImEE10deallocateERS0_Pmm
FN:474,_ZNSt16allocator_traitsISaImEE9constructImJRKmEEEvRS0_PT_DpOT0_
FN:486,_ZNSt16allocator_traitsISaImEE7destroyImEEvRS0_PT_
FN:495,_ZNSt16allocator_traitsISaIhEE8max_sizeERKS0_
FN:495,_ZNSt16allocator_traitsISaImEE8max_sizeERKS0_
FN:504,_ZNSt16allocator_traitsISaIhEE37select_on_container_copy_constructionERKS0_
FNDA:1238,_ZNSt16allocator_traitsISaIhEE8allocateERS0_m
FNDA:2190,_ZNSt16allocator_traitsISaImEE8allocateERS0_m
FNDA:1238,_ZNSt16allocator_traitsISaIhEE10deallocateERS0_Phm
FNDA:2190,_ZNSt16allocator_traitsISaImEE10deallocateERS0_Pmm
FNDA:0,_ZNSt16allocator_traitsISaImEE9constructImJRKmEEEvRS0_PT_DpOT0_
FNDA:0,_ZNSt16allocator_traitsISaImEE7destroyImEEvRS0_PT_
FNDA:1582,_ZNSt16allocator_traitsISaIhEE8max_sizeERKS0_
FNDA:876,_ZNSt16allocator_traitsISaImEE8max_sizeERKS0_
FNDA:161,_ZNSt16allocator_traitsISaIhEE37select_on_container_copy_constructionERKS0_
FNF:9
FNH:7
DA:435,3428
DA:436,3428
DA:461,3428
DA:462,3428
DA:474,0
DA:475,0
DA:486,0
DA:487,0
DA:495,2458
DA:496,2458
DA:504,161
DA:505,161
LF:12
LH:8
end_of_record
SF:/usr/include/c++/7/bits/allocator.h
FN:131,_ZNSaImEC2Ev
FN:131,_ZNSaIhEC2Ev
FN:133,_ZNSaImEC2ERKS_
FN:133,_ZNSaIhEC2ERKS_
FN:139,_ZNSaImED2Ev
FN:139,_ZNSaIhED2Ev
FNDA:1079,_ZNSaIhEC2Ev
FNDA:2253,_ZNSaImEC2Ev
FNDA:1752,_ZNSaImEC2ERKS_
FNDA:608,_ZNSaIhEC2ERKS_
FNDA:1687,_ZNSaIhED2Ev
FNDA:4005,_ZNSaImED2Ev
FNF:6
FNH:6
DA:131,3332
DA:133,2360
DA:134,2360
DA:139,5692
LF:4
LH:4
end_of_record
SF:/usr/include/c++/7/bits/cpp_type_traits.h
FN:408,_ZSt12__miter_baseIN9__gnu_cxx17__normal_iteratorIPKhSt6vectorIhSaIhEEEEET_S8_
FN:408,_ZSt12__miter_baseIPhET_S1_
FN:408,_ZSt12__miter_baseIPmET_S1_
FN:408,_ZSt12__miter_baseIPKhET_S2_
FNDA:322,_ZSt12__miter_baseIN9__gnu_cxx17__normal_iteratorIPKhSt6vectorIhSaIhEEEEET_S8_
FNDA:1608,_ZSt12__miter_baseIPKhET_S2_
FNDA:2574,_ZSt12__miter_baseIPhET_S1_
FNDA:1752,_ZSt12__miter_baseIPmET_S1_
FNF:4
FNH:4
DA:408,6256
DA:409,6256
LF:2
LH:2
end_of_record
SF:/usr/include/c++/7/bits/ios_base.h
FN:83,_ZStanSt13_Ios_FmtflagsS_
FN:87,_ZStorSt13_Ios_FmtflagsS_
FN:95,_ZStcoSt13_Ios_Fmtflags
FN:99,_ZStoRRSt13_Ios_FmtflagsS_
FN:103,_ZStaNRSt13_Ios_FmtflagsS_
FN:129,_ZStorSt13_Ios_OpenmodeS_
FN:663,_ZNSt8ios_base4setfESt13_Ios_FmtflagsS0_
FN:1024,_ZSt3hexRSt8ios_base
FNDA:322,_ZStanSt13_Ios_FmtflagsS_
FNDA:161,_ZStorSt13_Ios_FmtflagsS_
FNDA:161,_ZStcoSt13_Ios_Fmtflags
FNDA:161,_ZStoRRSt13_Ios_FmtflagsS_
FNDA:161,_ZStaNRSt13_Ios_FmtflagsS_
FNDA:402,_ZStorSt13_Ios_OpenmodeS_
FNDA:161,_ZNSt8ios_base4setfESt13_Ios_FmtflagsS0_
FNDA:161,_ZSt3hexRSt8ios_base
FNF:8
FNH:8
DA:83,322
DA:84,322
DA:87,161
DA:88,161
DA:95,161
DA:96,161
DA:99,161
DA:100,161
DA:103,161
DA:104,161
DA:129,402
DA:130,402
DA:663,161
DA:665,161
DA:666,161
DA:667,161
DA:668,161
DA:1024,161
DA:1026,161
DA:1027,161
LF:20
LH:20
end_of_record
SF:/usr/include/c++/7/bits/move.h
FN:47,_ZSt11__addressofImEPT_RS0_
FN:73,_ZSt7forwardIRKmEOT_RNSt16remove_referenceIS2_E4typeE
FN:137,_ZSt9addressofImEPT_RS0_
FNDA:0,_ZSt11__addressofImEPT_RS0_
FNDA:0,_ZSt7forwardIRKmEOT_RNSt16remove_referenceIS2_E4typeE
FNDA:0,_ZSt9addressofImEPT_RS0_
FNF:3
FNH:0
DA:47,0
DA:48,0
DA:73,0
DA:74,0
DA:137,0
DA:138,0
LF:6
LH:0
end_of_record
SF:/usr/include/c++/7/bits/postypes.h
FN:137,_ZNKSt4fposI11__mbstate_tEcvlEv
FNDA:402,_ZNKSt4fposI11__mbstate_tEcvlEv
FNF:1
FNH:1
DA:137,402
LF:1
LH:1
end_of_record
SF:/usr/include/c++/7/bits/ptr_traits.h
FN:141,_ZNSt14pointer_traitsIPmE10pointer_toERm
FNDA:0,_ZNSt14pointer_traitsIPmE10pointer_toERm
FNF:1
FNH:0
DA:141,0
DA:142,0
LF:2
LH:0
end_of_record
SF:/usr/include/c++/7/bits/stl_algobase.h
FN:219,_ZSt3maxImERKT_S2_S2_
FN:277,_ZSt12__niter_baseIPmET_S1_
FN:277,_ZSt12__niter_baseIPKhET_S2_
FN:277,_ZSt12__niter_baseIPhET_S1_
FN:357,_ZNSt11__copy_moveILb1ELb1ESt26random_access_iterator_tagE8__copy_mIhEEPT_PKS3_S6_S4_
FN:357,_ZNSt11__copy_moveILb0ELb1ESt26random_access_iterator_tagE8__copy_mIhEEPT_PKS3_S6_S4_
FN:357,_ZNSt11__copy_moveILb1ELb1ESt26random_access_iterator_tagE8__copy_mImEEPT_PKS3_S6_S4_
FN:375,_ZSt13__copy_move_aILb1EPmS0_ET1_T0_S2_S1_
FN:375,_ZSt13__copy_move_aILb1EPhS0_ET1_T0_S2_S1_
FN:375,_ZSt13__copy_move_aILb0EPKhPhET1_T0_S4_S3_
FN:420,_ZSt14__copy_move_a2ILb1EPmS0_ET1_T0_S2_S1_
FN:420,_ZSt14__copy_move_a2ILb1EPhS0_ET1_T0_S2_S1_
FN:420,_ZSt14__copy_move_a2ILb0EN9__gnu_cxx17__normal_iteratorIPKhSt6vectorIhSaIhEEEEPhET1_T0_SA_S9_
FN:420,_ZSt14__copy_move_a2ILb0EPKhPhET1_T0_S4_S3_
FN:420,_ZSt14__copy_move_a2ILb0EPKhN9__gnu_cxx17__normal_iteratorIPhSt6vectorIhSaIhEEEEET1_T0_SA_S9_
FN:446,_ZSt4copyISt13move_iteratorIPmES1_ET0_T_S4_S3_
FN:446,_ZSt4copyIPKhN9__gnu_cxx17__normal_iteratorIPhSt6vectorIhSaIhEEEEET0_T_SA_S9_
FN:446,_ZSt4copyIN9__gnu_cxx17__normal_iteratorIPKhSt6vectorIhSaIhEEEEPhET0_T_SA_S9_
FN:446,_ZSt4copyIPKhPhET0_T_S4_S3_
FN:446,_ZSt4copyISt13move_iteratorIPhES1_ET0_T_S4_S3_
FN:559,_ZNSt20__copy_move_backwardILb1ELb1ESt26random_access_iterator_tagE13__copy_move_bIhEEPT_PKS3_S6_S4_
FN:559,_ZNSt20__copy_move_backwardILb1ELb1ESt26random_access_iterator_tagE13__copy_move_bImEEPT_PKS3_S6_S4_
FN:577,_ZSt22__copy_move_backward_aILb1EPmS0_ET1_T0_S2_S1_
FN:577,_ZSt22__copy_move_backward_aILb1EPhS0_ET1_T0_S2_S1_
FN:595,_ZSt23__copy_move_backward_a2ILb1EPhS0_ET1_T0_S2_S1_
FN:595,_ZSt23__copy_move_backward_a2ILb1EPmS0_ET1_T0_S2_S1_
FN:658,_ZSt13move_backwardIPmS0_ET0_T_S2_S1_
FN:658,_ZSt13move_backwardIPhS0_ET0_T_S2_S1_
FN:691,_ZSt8__fill_aIPmmEN9__gnu_cxx11__enable_ifIXsrSt11__is_scalarIT0_E7__valueEvE6__typeET_S8_RKS4_
FN:703,_ZSt8__fill_aIhEN9__gnu_cxx11__enable_ifIXsrSt9__is_byteIT_E7__valueEvE6__typeEPS3_S7_RKS3_
FN:724,_ZSt4fillIPmmEvT_S1_RKT0_
FN:749,_ZSt10__fill_n_aIPmmmEN9__gnu_cxx11__enable_ifIXsrSt11__is_scalarIT1_E7__valueET_E6__typeES6_T0_RKS4_
FN:761,_ZSt10__fill_n_aImhEN9__gnu_cxx11__enable_ifIXsrSt9__is_byteIT0_E7__valueEPS3_E6__typeES5_T_RKS3_
FN:784,_ZSt6fill_nIPmmmET_S1_T0_RKT1_
FN:784,_ZSt6fill_nIPhmhET_S1_T0_RKT1_
FNDA:1229,_ZSt3maxImERKT_S2_S2_
FNDA:1608,_ZSt12__niter_baseIPKhET_S2_
FNDA:5407,_ZSt12__niter_baseIPhET_S1_
FNDA:4818,_ZSt12__niter_baseIPmET_S1_
FNDA:1287,_ZNSt11__copy_moveILb1ELb1ESt26random_access_iterator_tagE8__copy_mIhEEPT_PKS3_S6_S4_
FNDA:876,_ZNSt11__copy_moveILb1ELb1ESt26random_access_iterator_tagE8__copy_mImEEPT_PKS3_S6_S4_
FNDA:965,_ZNSt11__copy_moveILb0ELb1ESt26random_access_iterator_tagE8__copy_mIhEEPT_PKS3_S6_S4_
FNDA:1287,_ZSt13__copy_move_aILb1EPhS0_ET1_T0_S2_S1_
FNDA:876,_ZSt13__copy_move_aILb1EPmS0_ET1_T0_S2_S1_
FNDA:965,_ZSt13__copy_move_aILb0EPKhPhET1_T0_S4_S3_
FNDA:496,_ZSt14__copy_move_a2ILb0EPKhPhET1_T0_S4_S3_
FNDA:1287,_ZSt14__copy_move_a2ILb1EPhS0_ET1_T0_S2_S1_
FNDA:876,_ZSt14__copy_move_a2ILb1EPmS0_ET1_T0_S2_S1_
FNDA:161,_ZSt14__copy_move_a2ILb0EN9__gnu_cxx17__normal_iteratorIPKhSt6vectorIhSaIhEEEEPhET1_T0_SA_S9_
FNDA:308,_ZSt14__copy_move_a2ILb0EPKhN9__gnu_cxx17__normal_iteratorIPhSt6vectorIhSaIhEEEEET1_T0_SA_S9_
FNDA:496,_ZSt4copyIPKhPhET0_T_S4_S3_
FNDA:1287,_ZSt4copyISt13move_iteratorIPhES1_ET0_T_S4_S3_
FNDA:876,_ZSt4copyISt13move_iteratorIPmES1_ET0_T_S4_S3_
FNDA:161,_ZSt4copyIN9__gnu_cxx17__normal_iteratorIPKhSt6vectorIhSaIhEEEEPhET0_T_SA_S9_
FNDA:308,_ZSt4copyIPKhN9__gnu_cxx17__normal_iteratorIPhSt6vectorIhSaIhEEEEET0_T_SA_S9_
FNDA:0,_ZNSt20__copy_move_backwardILb1ELb1ESt26random_access_iterator_tagE13__copy_move_bIhEEPT_PKS3_S6_S4_
FNDA:0,_ZNSt20__copy_move_backwardILb1ELb1ESt26random_access_iterator_tagE13__copy_move_bImEEPT_PKS3_S6_S4_
FNDA:0,_ZSt22__copy_move_backward_aILb1EPhS0_ET1_T0_S2_S1_
FNDA:0,_ZSt22__copy_move_backward_aILb1EPmS0_ET1_T0_S2_S1_
FNDA:0,_ZSt23__copy_move_backward_a2ILb1EPhS0_ET1_T0_S2_S1_
FNDA:0,_ZSt23__copy_move_backward_a2ILb1EPmS0_ET1_T0_S2_S1_
FNDA:0,_ZSt13move_backwardIPhS0_ET0_T_S2_S1_
FNDA:0,_ZSt13move_backwardIPmS0_ET0_T_S2_S1_
FNDA:0,_ZSt8__fill_aIPmmEN9__gnu_cxx11__enable_ifIXsrSt11__is_scalarIT0_E7__valueEvE6__typeET_S8_RKS4_
FNDA:889,_ZSt8__fill_aIhEN9__gnu_cxx11__enable_ifIXsrSt9__is_byteIT_E7__valueEvE6__typeEPS3_S7_RKS3_
FNDA:0,_ZSt4fillIPmmEvT_S1_RKT0_
FNDA:2190,_ZSt10__fill_n_aIPmmmEN9__gnu_cxx11__enable_ifIXsrSt11__is_scalarIT1_E7__valueET_E6__typeES6_T0_RKS4_
FNDA:889,_ZSt10__fill_n_aImhEN9__gnu_cxx11__enable_ifIXsrSt9__is_byteIT0_E7__valueEPS3_E6__typeES5_T_RKS3_
FNDA:889,_ZSt6fill_nIPhmhET_S1_T0_RKT1_
FNDA:2190,_ZSt6fill_nIPmmmET_S1_T0_RKT1_
FNF:35
FNH:25
DA:219,1229
DA:224,1229
DA:225,1148
DA:226,81
DA:277,11833
DA:278,11833
DA:357,3128
DA:366,3128
DA:367,3128
DA:368,848
DA:369,3128
DA:375,3128
DA:380,3128
DA:386,3128
DA:420,3128
DA:422,3436
DA:424,3436
DA:446,3128
DA:455,3128
DA:456,3128
DA:559,0
DA:568,0
DA:569,0
DA:570,0
DA:571,0
DA:577,0
DA:582,0
DA:590,0
DA:595,0
DA:598,0
DA:599,0
DA:658,0
DA:668,0
DA:670,0
DA:691,0
DA:694,0
DA:695,0
DA:696,0
DA:697,0
DA:703,889
DA:705,889
DA:706,889
DA:707,889
DA:708,889
DA:724,0
DA:731,0
DA:733,0
DA:749,2190
DA:751,2190
DA:752,233886
DA:753,233886
DA:754,231696
DA:755,2190
DA:761,889
DA:763,889
DA:764,889
DA:784,3079
DA:789,3079
LF:58
LH:36
end_of_record
SF:/usr/include/c++/7/bits/stl_construct.h
FN:117,_ZNSt12_Destroy_auxILb1EE9__destroyIPhEEvT_S3_
FN:117,_ZNSt12_Destroy_auxILb1EE9__destroyIPmEEvT_S3_
FN:127,_ZSt8_DestroyIPmEvT_S1_
FN:127,_ZSt8_DestroyIPhEvT_S1_
FN:203,_ZSt8_DestroyIPmmEvT_S1_RSaIT0_E
FN:203,_ZSt8_DestroyIPhhEvT_S1_RSaIT0_E
FNDA:2200,_ZNSt12_Destroy_auxILb1EE9__destroyIPhEEvT_S3_
FNDA:3129,_ZNSt12_Destroy_auxILb1EE9__destroyIPmEEvT_S3_
FNDA:2200,_ZSt8_DestroyIPhEvT_S1_
FNDA:3129,_ZSt8_DestroyIPmEvT_S1_
FNDA:2200,_ZSt8_DestroyIPhhEvT_S1_RSaIT0_E
FNDA:3129,_ZSt8_DestroyIPmmEvT_S1_RSaIT0_E
FNF:6
FNH:6
DA:117,5329
DA:127,5329
DA:137,5329
DA:138,5329
DA:203,5329
DA:206,5329
DA:207,5329
LF:7
LH:7
end_of_record
SF:/usr/include/c++/7/bits/stl_iterator.h
FN:782,_ZN9__gnu_cxx17__normal_iteratorIPhSt6vectorIhSaIhEEEC2ERKS1_
FN:782,_ZN9__gnu_cxx17__normal_iteratorIPmSt6vectorImSaImEEEC2ERKS1_
FN:782,_ZN9__gnu_cxx17__normal_iteratorIPKhSt6vectorIhSaIhEEEC2ERKS2_
FN:787,_ZN9__gnu_cxx17__normal_iteratorIPKhSt6vectorIhSaIhEEEC2IPhEERKNS0_IT_NS_11__enable_ifIXsrSt10__are_sameIS9_S8_E7__valueES5_E6__typeEEE
FN:835,_ZNK9__gnu_cxx17__normal_iteratorIPhSt6vectorIhSaIhEEEplEl
FN:847,_ZNK9__gnu_cxx17__normal_iteratorIPhSt6vectorIhSaIhEEE4baseEv
FN:847,_ZNK9__gnu_cxx17__normal_iteratorIPKhSt6vectorIhSaIhEEE4baseEv
FN:847,_ZNK9__gnu_cxx17__normal_iteratorIPmSt6vectorImSaImEEE4baseEv
FN:869,_ZN9__gnu_cxxeqIPKhSt6vectorIhSaIhEEEEbRKNS_17__normal_iteratorIT_T0_EESB_
FN:965,_ZN9__gnu_cxxmiIPKhSt6vectorIhSaIhEEEENS_17__normal_iteratorIT_T0_E15difference_typeERKS9_SC_
FN:965,_ZN9__gnu_cxxmiIPhSt6vectorIhSaIhEEEENS_17__normal_iteratorIT_T0_E15difference_typeERKS8_SB_
FN:965,_ZN9__gnu_cxxmiIPmSt6vectorImSaImEEEENS_17__normal_iteratorIT_T0_E15difference_typeERKS8_SB_
FN:986,_ZSt12__niter_baseIPhSt6vectorIhSaIhEEET_N9__gnu_cxx17__normal_iteratorIS4_T0_EE
FN:986,_ZSt12__niter_baseIPKhSt6vectorIhSaIhEEET_N9__gnu_cxx17__normal_iteratorIS5_T0_EE
FN:1039,_ZNSt13move_iteratorIPhEC2ES0_
FN:1039,_ZNSt13move_iteratorIPmEC2ES0_
FN:1048,_ZNKSt13move_iteratorIPhE4baseEv
FN:1048,_ZNKSt13move_iteratorIPmE4baseEv
FN:1207,_ZSt18make_move_iteratorIPmESt13move_iteratorIT_ES2_
FN:1207,_ZSt18make_move_iteratorIPhESt13move_iteratorIT_ES2_
FN:1224,_ZSt32__make_move_if_noexcept_iteratorIhSt13move_iteratorIPhEET0_PT_
FN:1224,_ZSt32__make_move_if_noexcept_iteratorImSt13move_iteratorIPmEET0_PT_
FN:1244,_ZSt12__miter_baseIPhEDTcl12__miter_basecldtfp_4baseEEESt13move_iteratorIT_E
FN:1244,_ZSt12__miter_baseIPmEDTcl12__miter_basecldtfp_4baseEEESt13move_iteratorIT_E
FNDA:1542,_ZN9__gnu_cxx17__normal_iteratorIPKhSt6vectorIhSaIhEEEC2ERKS2_
FNDA:876,_ZN9__gnu_cxx17__normal_iteratorIPmSt6vectorImSaImEEEC2ERKS1_
FNDA:3096,_ZN9__gnu_cxx17__normal_iteratorIPhSt6vectorIhSaIhEEEC2ERKS1_
FNDA:496,_ZN9__gnu_cxx17__normal_iteratorIPKhSt6vectorIhSaIhEEEC2IPhEERKNS0_IT_NS_11__enable_ifIXsrSt10__are_sameIS9_S8_E7__valueES5_E6__typeEEE
FNDA:992,_ZNK9__gnu_cxx17__normal_iteratorIPhSt6vectorIhSaIhEEEplEl
FNDA:2038,_ZNK9__gnu_cxx17__normal_iteratorIPKhSt6vectorIhSaIhEEE4baseEv
FNDA:1752,_ZNK9__gnu_cxx17__normal_iteratorIPmSt6vectorImSaImEEE4baseEv
FNDA:2104,_ZNK9__gnu_cxx17__normal_iteratorIPhSt6vectorIhSaIhEEE4baseEv
FNDA:362,_ZN9__gnu_cxxeqIPKhSt6vectorIhSaIhEEEEbRKNS_17__normal_iteratorIT_T0_EESB_
FNDA:308,_ZN9__gnu_cxxmiIPhSt6vectorIhSaIhEEEENS_17__normal_iteratorIT_T0_E15difference_typeERKS8_SB_
FNDA:438,_ZN9__gnu_cxxmiIPmSt6vectorImSaImEEEENS_17__normal_iteratorIT_T0_E15difference_typeERKS8_SB_
FNDA:496,_ZN9__gnu_cxxmiIPKhSt6vectorIhSaIhEEEENS_17__normal_iteratorIT_T0_E15difference_typeERKS9_SC_
FNDA:322,_ZSt12__niter_baseIPKhSt6vectorIhSaIhEEET_N9__gnu_cxx17__normal_iteratorIS5_T0_EE
FNDA:308,_ZSt12__niter_baseIPhSt6vectorIhSaIhEEET_N9__gnu_cxx17__normal_iteratorIS4_T0_EE
FNDA:2574,_ZNSt13move_iteratorIPhEC2ES0_
FNDA:1752,_ZNSt13move_iteratorIPmEC2ES0_
FNDA:2574,_ZNKSt13move_iteratorIPhE4baseEv
FNDA:1752,_ZNKSt13move_iteratorIPmE4baseEv
FNDA:616,_ZSt18make_move_iteratorIPhESt13move_iteratorIT_ES2_
FNDA:0,_ZSt18make_move_iteratorIPmESt13move_iteratorIT_ES2_
FNDA:1958,_ZSt32__make_move_if_noexcept_iteratorIhSt13move_iteratorIPhEET0_PT_
FNDA:1752,_ZSt32__make_move_if_noexcept_iteratorImSt13move_iteratorIPmEET0_PT_
FNDA:2574,_ZSt12__miter_baseIPhEDTcl12__miter_basecldtfp_4baseEEESt13move_iteratorIT_E
FNDA:1752,_ZSt12__miter_baseIPmEDTcl12__miter_basecldtfp_4baseEEESt13move_iteratorIT_E
FNF:24
FNH:23
DA:782,5514
DA:783,5514
DA:787,496
DA:791,496
DA:835,992
DA:836,992
DA:847,5894
DA:848,5894
DA:869,362
DA:872,362
DA:965,1242
DA:968,1242
DA:986,630
DA:987,630
DA:1039,4326
DA:1040,4326
DA:1048,4326
DA:1049,4326
DA:1207,616
DA:1208,616
DA:1224,3710
DA:1225,3710
DA:1244,4326
DA:1246,4326
LF:24
LH:24
end_of_record
SF:/usr/include/c++/7/bits/stl_iterator_base_funcs.h
FN:98,_ZSt10__distanceIPKhENSt15iterator_traitsIT_E15difference_typeES3_S3_St26random_access_iterator_tag
FN:138,_ZSt8distanceIPKhENSt15iterator_traitsIT_E15difference_typeES3_S3_
FN:174,_ZSt9__advanceIPKhlEvRT_T0_St26random_access_iterator_tag
FN:197,_ZSt7advanceIPKhmEvRT_T0_
FNDA:496,_ZSt10__distanceIPKhENSt15iterator_traitsIT_E15difference_typeES3_S3_St26random_access_iterator_tag
FNDA:496,_ZSt8distanceIPKhENSt15iterator_traitsIT_E15difference_typeES3_S3_
FNDA:308,_ZSt9__advanceIPKhlEvRT_T0_St26random_access_iterator_tag
FNDA:308,_ZSt7advanceIPKhmEvRT_T0_
FNF:4
FNH:4
DA:98,496
DA:104,496
DA:138,496
DA:141,496
DA:142,992
DA:174,308
DA:180,308
DA:181,308
DA:197,308
DA:200,308
DA:201,308
DA:202,308
LF:12
LH:12
end_of_record
SF:/usr/include/c++/7/bits/stl_iterator_base_types.h
FN:205,_ZSt19__iterator_categoryIPKhENSt15iterator_traitsIT_E17iterator_categoryERKS3_
FNDA:1300,_ZSt19__iterator_categoryIPKhENSt15iterator_traitsIT_E17iterator_categoryERKS3_
FNF:1
FNH:1
DA:205,1300
DA:206,1300
LF:2
LH:2
end_of_record
SF:/usr/include/c++/7/bits/stl_uninitialized.h
FN:99,_ZNSt20__uninitialized_copyILb1EE13__uninit_copyIPKhPhEET0_T_S6_S5_
FN:99,_ZNSt20__uninitialized_copyILb1EE13__uninit_copyISt13move_iteratorIPhES3_EET0_T_S6_S5_
FN:99,_ZNSt20__uninitialized_copyILb1EE13__uninit_copyISt13move_iteratorIPmES3_EET0_T_S6_S5_
FN:99,_ZNSt20__uninitialized_copyILb1EE13__uninit_copyIN9__gnu_cxx17__normal_iteratorIPKhSt6vectorIhSaIhEEEEPhEET0_T_SC_SB_
FN:115,_ZSt18uninitialized_copyIN9__gnu_cxx17__normal_iteratorIPKhSt6vectorIhSaIhEEEEPhET0_T_SA_S9_
FN:115,_ZSt18uninitialized_copyISt13move_iteratorIPhES1_ET0_T_S4_S3_
FN:115,_ZSt18uninitialized_copyISt13move_iteratorIPmES1_ET0_T_S4_S3_
FN:115,_ZSt18uninitialized_copyIPKhPhET0_T_S4_S3_
FN:226,_ZNSt22__uninitialized_fill_nILb1EE15__uninit_fill_nIPmmmEET_S3_T0_RKT1_
FN:244,_ZSt20uninitialized_fill_nIPmmmET_S1_T0_RKT1_
FN:287,_ZSt22__uninitialized_copy_aISt13move_iteratorIPhES1_hET0_T_S4_S3_RSaIT1_E
FN:287,_ZSt22__uninitialized_copy_aIN9__gnu_cxx17__normal_iteratorIPKhSt6vectorIhSaIhEEEEPhhET0_T_SA_S9_RSaIT1_E
FN:287,_ZSt22__uninitialized_copy_aISt13move_iteratorIPmES1_mET0_T_S4_S3_RSaIT1_E
FN:287,_ZSt22__uninitialized_copy_aIPKhPhhET0_T_S4_S3_RSaIT1_E
FN:294,_ZSt22__uninitialized_move_aIPmS0_SaImEET0_T_S3_S2_RT1_
FN:294,_ZSt22__uninitialized_move_aIPhS0_SaIhEET0_T_S3_S2_RT1_
FN:305,_ZSt34__uninitialized_move_if_noexcept_aIPhS0_SaIhEET0_T_S3_S2_RT1_
FN:305,_ZSt34__uninitialized_move_if_noexcept_aIPmS0_SaImEET0_T_S3_S2_RT1_
FN:364,_ZSt24__uninitialized_fill_n_aIPmmmmET_S1_T0_RKT1_RSaIT2_E
FN:543,_ZNSt27__uninitialized_default_n_1ILb1EE18__uninit_default_nIPmmEET_S3_T0_
FN:543,_ZNSt27__uninitialized_default_n_1ILb1EE18__uninit_default_nIPhmEET_S3_T0_
FN:574,_ZSt25__uninitialized_default_nIPhmET_S1_T0_
FN:574,_ZSt25__uninitialized_default_nIPmmET_S1_T0_
FN:643,_ZSt27__uninitialized_default_n_aIPmmmET_S1_T0_RSaIT1_E
FN:643,_ZSt27__uninitialized_default_n_aIPhmhET_S1_T0_RSaIT1_E
FNDA:496,_ZNSt20__uninitialized_copyILb1EE13__uninit_copyIPKhPhEET0_T_S6_S5_
FNDA:1287,_ZNSt20__uninitialized_copyILb1EE13__uninit_copyISt13move_iteratorIPhES3_EET0_T_S6_S5_
FNDA:876,_ZNSt20__uninitialized_copyILb1EE13__uninit_copyISt13move_iteratorIPmES3_EET0_T_S6_S5_
FNDA:161,_ZNSt20__uninitialized_copyILb1EE13__uninit_copyIN9__gnu_cxx17__normal_iteratorIPKhSt6vectorIhSaIhEEEEPhEET0_T_SC_SB_
FNDA:496,_ZSt18uninitialized_copyIPKhPhET0_T_S4_S3_
FNDA:1287,_ZSt18uninitialized_copyISt13move_iteratorIPhES1_ET0_T_S4_S3_
FNDA:876,_ZSt18uninitialized_copyISt13move_iteratorIPmES1_ET0_T_S4_S3_
FNDA:161,_ZSt18uninitialized_copyIN9__gnu_cxx17__normal_iteratorIPKhSt6vectorIhSaIhEEEEPhET0_T_SA_S9_
FNDA:1644,_ZNSt22__uninitialized_fill_nILb1EE15__uninit_fill_nIPmmmEET_S3_T0_RKT1_
FNDA:1644,_ZSt20uninitialized_fill_nIPmmmET_S1_T0_RKT1_
FNDA:496,_ZSt22__uninitialized_copy_aIPKhPhhET0_T_S4_S3_RSaIT1_E
FNDA:1287,_ZSt22__uninitialized_copy_aISt13move_iteratorIPhES1_hET0_T_S4_S3_RSaIT1_E
FNDA:876,_ZSt22__uninitialized_copy_aISt13move_iteratorIPmES1_mET0_T_S4_S3_RSaIT1_E
FNDA:161,_ZSt22__uninitialized_copy_aIN9__gnu_cxx17__normal_iteratorIPKhSt6vectorIhSaIhEEEEPhhET0_T_SA_S9_RSaIT1_E
FNDA:308,_ZSt22__uninitialized_move_aIPhS0_SaIhEET0_T_S3_S2_RT1_
FNDA:0,_ZSt22__uninitialized_move_aIPmS0_SaImEET0_T_S3_S2_RT1_
FNDA:979,_ZSt34__uninitialized_move_if_noexcept_aIPhS0_SaIhEET0_T_S3_S2_RT1_
FNDA:876,_ZSt34__uninitialized_move_if_noexcept_aIPmS0_SaImEET0_T_S3_S2_RT1_
FNDA:1644,_ZSt24__uninitialized_fill_n_aIPmmmmET_S1_T0_RKT1_RSaIT2_E
FNDA:889,_ZNSt27__uninitialized_default_n_1ILb1EE18__uninit_default_nIPhmEET_S3_T0_
FNDA:546,_ZNSt27__uninitialized_default_n_1ILb1EE18__uninit_default_nIPmmEET_S3_T0_
FNDA:889,_ZSt25__uninitialized_default_nIPhmET_S1_T0_
FNDA:546,_ZSt25__uninitialized_default_nIPmmET_S1_T0_
FNDA:889,_ZSt27__uninitialized_default_n_aIPhmhET_S1_T0_RSaIT1_E
FNDA:546,_ZSt27__uninitialized_default_n_aIPmmmET_S1_T0_RSaIT1_E
FNF:25
FNH:24
DA:99,2820
DA:101,2820
DA:115,2820
DA:128,2820
DA:134,2820
DA:226,1644
DA:228,1644
DA:244,1644
DA:252,1644
DA:255,1644
DA:287,2820
DA:289,2820
DA:294,308
DA:297,308
DA:299,308
DA:305,1855
DA:311,1855
DA:312,1855
DA:364,1644
DA:366,1644
DA:543,1435
DA:548,1435
DA:574,1435
DA:579,1435
DA:583,1435
DA:643,1435
DA:645,1435
LF:27
LH:27
end_of_record
SF:/usr/include/c++/7/bits/stl_vector.h
FN:81,_ZNSt12_Vector_baseImSaImEE12_Vector_implD2Ev
FN:81,_ZNSt12_Vector_baseIhSaIhEE12_Vector_implD2Ev
FN:88,_ZNSt12_Vector_baseImSaImEE12_Vector_implC2Ev
FN:88,_ZNSt12_Vector_baseIhSaIhEE12_Vector_implC2Ev
FN:92,_ZNSt12_Vector_baseImSaImEE12_Vector_implC2ERKS0_
FN:92,_ZNSt12_Vector_baseIhSaIhEE12_Vector_implC2ERKS0_
FN:115,_ZNSt12_Vector_baseImSaImEE19_M_get_Tp_allocatorEv
FN:115,_ZNSt12_Vector_baseIhSaIhEE19_M_get_Tp_allocatorEv
FN:119,_ZNKSt12_Vector_baseImSaImEE19_M_get_Tp_allocatorEv
FN:119,_ZNKSt12_Vector_baseIhSaIhEE19_M_get_Tp_allocatorEv
FN:126,_ZNSt12_Vector_baseImSaImEEC2Ev
FN:126,_ZNSt12_Vector_baseIhSaIhEEC2Ev
FN:136,_ZNSt12_Vector_baseImSaImEEC2EmRKS0_
FN:136,_ZNSt12_Vector_baseIhSaIhEEC2EmRKS0_
FN:161,_ZNSt12_Vector_baseImSaImEED2Ev
FN:161,_ZNSt12_Vector_baseIhSaIhEED2Ev
FN:169,_ZNSt12_Vector_baseIhSaIhEE11_M_allocateEm
FN:169,_ZNSt12_Vector_baseImSaImEE11_M_allocateEm
FN:176,_ZNSt12_Vector_baseImSaImEE13_M_deallocateEPmm
FN:176,_ZNSt12_Vector_baseIhSaIhEE13_M_deallocateEPhm
FN:185,_ZNSt12_Vector_baseIhSaIhEE17_M_create_storageEm
FN:185,_ZNSt12_Vector_baseImSaImEE17_M_create_storageEm
FN:259,_ZNSt6vectorIhSaIhEEC2Ev
FN:259,_ZNSt6vectorImSaImEEC2Ev
FN:283,_ZNSt6vectorImSaImEEC2EmRKS0_
FN:283,_ZNSt6vectorIhSaIhEEC2EmRKS0_
FN:295,_ZNSt6vectorImSaImEEC2EmRKmRKS0_
FN:326,_ZNSt6vectorIhSaIhEEC2ERKS1_
FN:433,_ZNSt6vectorImSaImEED2Ev
FN:433,_ZNSt6vectorIhSaIhEED2Ev
FN:563,_ZNSt6vectorImSaImEE5beginEv
FN:563,_ZNSt6vectorIhSaIhEE5beginEv
FN:572,_ZNKSt6vectorIhSaIhEE5beginEv
FN:581,_ZNSt6vectorIhSaIhEE3endEv
FN:581,_ZNSt6vectorImSaImEE3endEv
FN:590,_ZNKSt6vectorIhSaIhEE3endEv
FN:636,_ZNKSt6vectorIhSaIhEE6cbeginEv
FN:670,_ZNKSt6vectorIhSaIhEE4sizeEv
FN:670,_ZNKSt6vectorImSaImEE4sizeEv
FN:675,_ZNKSt6vectorIhSaIhEE8max_sizeEv
FN:675,_ZNKSt6vectorImSaImEE8max_sizeEv
FN:689,_ZNSt6vectorIhSaIhEE6resizeEm
FN:709,_ZNSt6vectorImSaImEE6resizeEmRKm
FN:759,_ZNKSt6vectorIhSaIhEE5emptyEv
FN:795,_ZNSt6vectorIhSaIhEEixEm
FN:795,_ZNSt6vectorImSaImEEixEm
FN:813,_ZNKSt6vectorImSaImEEixEm
FN:813,_ZNKSt6vectorIhSaIhEEixEm
FN:1128,_ZNSt6vectorIhSaIhEE6insertIPKhvEEN9__gnu_cxx17__normal_iteratorIPhS1_EENS6_IS4_S1_EET_SA_
FN:1247,_ZNSt6vectorIhSaIhEE5clearEv
FN:1247,_ZNSt6vectorImSaImEE5clearEv
FN:1339,_ZNSt6vectorImSaImEE18_M_fill_initializeEmRKm
FN:1349,_ZNSt6vectorIhSaIhEE21_M_default_initializeEm
FN:1349,_ZNSt6vectorImSaImEE21_M_default_initializeEm
FN:1408,_ZNSt6vectorIhSaIhEE18_M_insert_dispatchIPKhEEvN9__gnu_cxx17__normal_iteratorIPhS1_EET_S9_St12__false_type
FN:1455,_ZNSt6vectorImSaImEE16_Temporary_valueC2IJRKmEEEPS1_DpOT_
FN:1461,_ZNSt6vectorImSaImEE16_Temporary_valueD2Ev
FN:1465,_ZNSt6vectorImSaImEE16_Temporary_value6_M_valEv
FN:1469,_ZNSt6vectorImSaImEE16_Temporary_value6_M_ptrEv
FN:1502,_ZNKSt6vectorIhSaIhEE12_M_check_lenEmPKc
FN:1502,_ZNKSt6vectorImSaImEE12_M_check_lenEmPKc
FN:1516,_ZNSt6vectorIhSaIhEE15_M_erase_at_endEPh
FN:1516,_ZNSt6vectorImSaImEE15_M_erase_at_endEPm
FNDA:1240,_ZNSt12_Vector_baseIhSaIhEE12_Vector_implD2Ev
FNDA:2253,_ZNSt12_Vector_baseImSaImEE12_Vector_implD2Ev
FNDA:793,_ZNSt12_Vector_baseIhSaIhEE12_Vector_implC2Ev
FNDA:501,_ZNSt12_Vector_baseImSaImEE12_Vector_implC2Ev
FNDA:447,_ZNSt12_Vector_baseIhSaIhEE12_Vector_implC2ERKS0_
FNDA:1752,_ZNSt12_Vector_baseImSaImEE12_Vector_implC2ERKS0_
FNDA:5033,_ZNSt12_Vector_baseIhSaIhEE19_M_get_Tp_allocatorEv
FNDA:6195,_ZNSt12_Vector_baseImSaImEE19_M_get_Tp_allocatorEv
FNDA:876,_ZNKSt12_Vector_baseImSaImEE19_M_get_Tp_allocatorEv
FNDA:1743,_ZNKSt12_Vector_baseIhSaIhEE19_M_get_Tp_allocatorEv
FNDA:793,_ZNSt12_Vector_baseIhSaIhEEC2Ev
FNDA:501,_ZNSt12_Vector_baseImSaImEEC2Ev
FNDA:447,_ZNSt12_Vector_baseIhSaIhEEC2EmRKS0_
FNDA:1752,_ZNSt12_Vector_baseImSaImEEC2EmRKS0_
FNDA:1240,_ZNSt12_Vector_baseIhSaIhEED2Ev
FNDA:2253,_ZNSt12_Vector_baseImSaImEED2Ev
FNDA:1238,_ZNSt12_Vector_baseIhSaIhEE11_M_allocateEm
FNDA:2190,_ZNSt12_Vector_baseImSaImEE11_M_allocateEm
FNDA:2031,_ZNSt12_Vector_baseIhSaIhEE13_M_deallocateEPhm
FNDA:2691,_ZNSt12_Vector_baseImSaImEE13_M_deallocateEPmm
FNDA:447,_ZNSt12_Vector_baseIhSaIhEE17_M_create_storageEm
FNDA:1752,_ZNSt12_Vector_baseImSaImEE17_M_create_storageEm
FNDA:793,_ZNSt6vectorIhSaIhEEC2Ev
FNDA:501,_ZNSt6vectorImSaImEEC2Ev
FNDA:286,_ZNSt6vectorIhSaIhEEC2EmRKS0_
FNDA:546,_ZNSt6vectorImSaImEEC2EmRKS0_
FNDA:1206,_ZNSt6vectorImSaImEEC2EmRKmRKS0_
FNDA:161,_ZNSt6vectorIhSaIhEEC2ERKS1_
FNDA:1240,_ZNSt6vectorIhSaIhEED2Ev
FNDA:2253,_ZNSt6vectorImSaImEED2Ev
FNDA:438,_ZNSt6vectorImSaImEE5beginEv
FNDA:992,_ZNSt6vectorIhSaIhEE5beginEv
FNDA:523,_ZNKSt6vectorIhSaIhEE5beginEv
FNDA:438,_ZNSt6vectorImSaImEE3endEv
FNDA:804,_ZNSt6vectorIhSaIhEE3endEv
FNDA:523,_ZNKSt6vectorIhSaIhEE3endEv
FNDA:496,_ZNKSt6vectorIhSaIhEE6cbeginEv
FNDA:127411,_ZNKSt6vectorIhSaIhEE4sizeEv
FNDA:461901,_ZNKSt6vectorImSaImEE4sizeEv
FNDA:1582,_ZNKSt6vectorIhSaIhEE8max_sizeEv
FNDA:876,_ZNKSt6vectorImSaImEE8max_sizeEv
FNDA:789,_ZNSt6vectorIhSaIhEE6resizeEm
FNDA:438,_ZNSt6vectorImSaImEE6resizeEmRKm
FNDA:362,_ZNKSt6vectorIhSaIhEE5emptyEv
FNDA:941546,_ZNSt6vectorIhSaIhEEixEm
FNDA:828466,_ZNSt6vectorImSaImEEixEm
FNDA:1494,_ZNKSt6vectorIhSaIhEEixEm
FNDA:1146852,_ZNKSt6vectorImSaImEEixEm
FNDA:496,_ZNSt6vectorIhSaIhEE6insertIPKhvEEN9__gnu_cxx17__normal_iteratorIPhS1_EENS6_IS4_S1_EET_SA_
FNDA:0,_ZNSt6vectorIhSaIhEE5clearEv
FNDA:438,_ZNSt6vectorImSaImEE5clearEv
FNDA:1206,_ZNSt6vectorImSaImEE18_M_fill_initializeEmRKm
FNDA:286,_ZNSt6vectorIhSaIhEE21_M_default_initializeEm
FNDA:546,_ZNSt6vectorImSaImEE21_M_default_initializeEm
FNDA:496,_ZNSt6vectorIhSaIhEE18_M_insert_dispatchIPKhEEvN9__gnu_cxx17__normal_iteratorIPhS1_EET_S9_St12__false_type
FNDA:0,_ZNSt6vectorImSaImEE16_Temporary_valueC2IJRKmEEEPS1_DpOT_
FNDA:0,_ZNSt6vectorImSaImEE16_Temporary_valueD2Ev
FNDA:0,_ZNSt6vectorImSaImEE16_Temporary_value6_M_valEv
FNDA:0,_ZNSt6vectorImSaImEE16_Temporary_value6_M_ptrEv
FNDA:791,_ZNKSt6vectorIhSaIhEE12_M_check_lenEmPKc
FNDA:438,_ZNKSt6vectorImSaImEE12_M_check_lenEmPKc
FNDA:169,_ZNSt6vectorIhSaIhEE15_M_erase_at_endEPh
FNDA:438,_ZNSt6vectorImSaImEE15_M_erase_at_endEPm
FNF:63
FNH:58
DA:81,3493
DA:88,1294
DA:89,1294
DA:90,1294
DA:92,2199
DA:93,2199
DA:94,2199
DA:115,11228
DA:116,11228
DA:119,2619
DA:120,2619
DA:126,1294
DA:127,1294
DA:136,2199
DA:137,2199
DA:138,2199
DA:161,3493
DA:162,6986
DA:163,6986
DA:169,3428
DA:172,3428
DA:176,4722
DA:179,4722
DA:180,3428
DA:181,4722
DA:185,2199
DA:187,2199
DA:188,2199
DA:189,2199
DA:190,2199
DA:259,1294
DA:263,1294
DA:283,832
DA:284,832
DA:285,832
DA:295,1206
DA:297,1206
DA:298,1206
DA:326,161
DA:328,161
DA:330,161
DA:331,161
DA:333,161
DA:334,161
DA:433,3493
DA:434,3493
DA:435,6986
DA:563,1430
DA:564,1430
DA:572,523
DA:573,523
DA:581,1242
DA:582,1242
DA:590,523
DA:591,523
DA:636,496
DA:637,496
DA:670,589312
DA:671,589312
DA:675,2458
DA:676,2458
DA:689,789
DA:691,789
DA:692,603
DA:693,186
DA:694,169
DA:695,789
DA:709,438
DA:711,438
DA:712,438
DA:713,0
DA:714,0
DA:715,438
DA:759,362
DA:760,362
DA:795,1770012
DA:798,1770012
DA:813,1148346
DA:816,1148346
DA:1128,496
DA:1131,496
DA:1132,496
DA:1134,496
DA:1247,438
DA:1248,438
DA:1339,1206
DA:1341,1206
DA:1342,1206
DA:1343,1206
DA:1344,1206
DA:1349,832
DA:1351,832
DA:1352,832
DA:1353,832
DA:1354,832
DA:1408,496
DA:1411,496
DA:1412,992
DA:1413,496
DA:1455,0
DA:1457,0
DA:1459,0
DA:1461,0
DA:1462,0
DA:1465,0
DA:1469,0
DA:1502,1229
DA:1504,1229
DA:1505,0
DA:1507,1229
DA:1508,1229
DA:1516,607
DA:1518,607
DA:1519,607
DA:1520,607
LF:115
LH:105
end_of_record
SF:/usr/include/c++/7/bits/vector.tcc
FN:458,_ZNSt6vectorImSaImEE14_M_fill_insertEN9__gnu_cxx17__normal_iteratorIPmS1_EEmRKm
FN:554,_ZNSt6vectorIhSaIhEE17_M_default_appendEm
FN:630,_ZNSt6vectorIhSaIhEE15_M_range_insertIPKhEEvN9__gnu_cxx17__normal_iteratorIPhS1_EET_S9_St20forward_iterator_tag
FNDA:438,_ZNSt6vectorImSaImEE14_M_fill_insertEN9__gnu_cxx17__normal_iteratorIPmS1_EEmRKm
FNDA:603,_ZNSt6vectorIhSaIhEE17_M_default_appendEm
FNDA:496,_ZNSt6vectorIhSaIhEE15_M_range_insertIPKhEEvN9__gnu_cxx17__normal_iteratorIPhS1_EET_S9_St20forward_iterator_tag
FNF:3
FNH:3
DA:458,438
DA:461,438
DA:463,876
DA:464,438
DA:469,0
DA:470,0
DA:472,0
DA:473,0
DA:474,0
DA:476,0
DA:479,0
DA:480,0
DA:481,0
DA:483,0
DA:488,0
DA:489,0
DA:492,0
DA:493,0
DA:495,0
DA:496,0
DA:497,0
DA:502,438
DA:504,438
DA:505,438
DA:506,438
DA:510,438
DA:512,438
DA:513,438
DA:515,438
DA:517,438
DA:518,438
DA:520,438
DA:522,438
DA:524,438
DA:525,438
DA:527,0
DA:529,0
DA:530,0
DA:531,0
DA:532,0
DA:534,0
DA:535,0
DA:536,0
DA:537,0
DA:539,438
DA:540,438
DA:541,876
DA:542,438
DA:543,438
DA:544,438
DA:545,438
DA:546,438
DA:549,438
DA:554,603
DA:557,603
DA:559,1206
DA:560,603
DA:562,0
DA:563,0
DA:564,0
DA:568,603
DA:570,603
DA:571,603
DA:572,603
DA:575,603
DA:576,603
DA:577,603
DA:578,603
DA:580,603
DA:582,0
DA:584,0
DA:585,0
DA:586,0
DA:587,0
DA:588,0
DA:590,603
DA:591,603
DA:592,1206
DA:593,603
DA:594,603
DA:595,603
DA:596,603
DA:597,603
DA:600,603
DA:630,496
DA:634,496
DA:636,496
DA:637,992
DA:638,496
DA:640,308
DA:641,308
DA:642,308
DA:644,0
DA:647,0
DA:648,0
DA:649,0
DA:651,0
DA:655,308
DA:656,308
DA:657,308
DA:659,308
DA:660,308
DA:661,308
DA:664,308
DA:665,308
DA:666,308
DA:671,188
DA:673,188
DA:674,188
DA:677,188
DA:679,188
DA:680,188
DA:681,188
DA:684,188
DA:685,188
DA:687,188
DA:688,188
DA:690,0
DA:692,0
DA:693,0
DA:694,0
DA:695,0
DA:697,188
DA:698,188
DA:699,376
DA:700,188
DA:701,188
DA:702,188
DA:703,188
DA:704,188
DA:707,496
LF:131
LH:86
end_of_record
SF:/usr/include/c++/7/ext/alloc_traits.h
FN:94,_ZN9__gnu_cxx14__alloc_traitsISaIhEE17_S_select_on_copyERKS1_
FNDA:161,_ZN9__gnu_cxx14__alloc_traitsISaIhEE17_S_select_on_copyERKS1_
FNF:1
FNH:1
DA:94,161
DA:95,161
LF:2
LH:2
end_of_record
SF:/usr/include/c++/7/ext/new_allocator.h
FN:79,_ZN9__gnu_cxx13new_allocatorImEC2Ev
FN:79,_ZN9__gnu_cxx13new_allocatorIhEC2Ev
FN:81,_ZN9__gnu_cxx13new_allocatorIhEC2ERKS1_
FN:81,_ZN9__gnu_cxx13new_allocatorImEC2ERKS1_
FN:86,_ZN9__gnu_cxx13new_allocatorIhED2Ev
FN:86,_ZN9__gnu_cxx13new_allocatorImED2Ev
FN:99,_ZN9__gnu_cxx13new_allocatorIhE8allocateEmPKv
FN:99,_ZN9__gnu_cxx13new_allocatorImE8allocateEmPKv
FN:116,_ZN9__gnu_cxx13new_allocatorImE10deallocateEPmm
FN:116,_ZN9__gnu_cxx13new_allocatorIhE10deallocateEPhm
FN:129,_ZNK9__gnu_cxx13new_allocatorIhE8max_sizeEv
FN:129,_ZNK9__gnu_cxx13new_allocatorImE8max_sizeEv
FN:135,_ZN9__gnu_cxx13new_allocatorImE9constructImJRKmEEEvPT_DpOT0_
FN:140,_ZN9__gnu_cxx13new_allocatorImE7destroyImEEvPT_
FNDA:1079,_ZN9__gnu_cxx13new_allocatorIhEC2Ev
FNDA:2253,_ZN9__gnu_cxx13new_allocatorImEC2Ev
FNDA:1752,_ZN9__gnu_cxx13new_allocatorImEC2ERKS1_
FNDA:608,_ZN9__gnu_cxx13new_allocatorIhEC2ERKS1_
FNDA:1687,_ZN9__gnu_cxx13new_allocatorIhED2Ev
FNDA:4005,_ZN9__gnu_cxx13new_allocatorImED2Ev
FNDA:1238,_ZN9__gnu_cxx13new_allocatorIhE8allocateEmPKv
FNDA:2190,_ZN9__gnu_cxx13new_allocatorImE8allocateEmPKv
FNDA:1238,_ZN9__gnu_cxx13new_allocatorIhE10deallocateEPhm
FNDA:2190,_ZN9__gnu_cxx13new_allocatorImE10deallocateEPmm
FNDA:2820,_ZNK9__gnu_cxx13new_allocatorIhE8max_sizeEv
FNDA:3066,_ZNK9__gnu_cxx13new_allocatorImE8max_sizeEv
FNDA:0,_ZN9__gnu_cxx13new_allocatorImE9constructImJRKmEEEvPT_DpOT0_
FNDA:0,_ZN9__gnu_cxx13new_allocatorImE7destroyImEEvPT_
FNF:14
FNH:12
DA:79,3332
DA:81,2360
DA:86,5692
DA:99,3428
DA:101,3428
DA:102,0
DA:111,3428
DA:116,3428
DA:125,3428
DA:126,3428
DA:129,5886
DA:130,5886
DA:135,0
DA:136,0
DA:140,0
LF:15
LH:11
end_of_record
SF:/usr/include/c++/7/iostream
DA:74,201
LF:1
LH:1
end_of_record
SF:/usr/include/c++/7/new
FN:168,_ZnwmPv
FNDA:0,_ZnwmPv
FNF:1
FNH:0
DA:168,0
DA:169,0
LF:2
LH:0
end_of_record
SF:/home/irons/fuzzing/eval/2coverage/picopng-cov/picopng.cpp
FN:25,_Z9decodePNGRSt6vectorIhSaIhEERmS3_PKhmb
FN:60,_ZZ9decodePNGRSt6vectorIhSaIhEERmS3_PKhmbEN4Zlib17readBitFromStreamES3_S5_
FN:61,_ZZ9decodePNGRSt6vectorIhSaIhEERmS3_PKhmbEN4Zlib18readBitsFromStreamES3_S5_m
FN:67,_ZZ9decodePNGRSt6vectorIhSaIhEERmS3_PKhmbEN4Zlib11HuffmanTreeD2Ev
FN:67,_ZZ9decodePNGRSt6vectorIhSaIhEERmS3_PKhmbEN4Zlib11HuffmanTreeC2Ev
FN:69,_ZZ9decodePNGRSt6vectorIhSaIhEERmS3_PKhmbEN4Zlib11HuffmanTree15makeFromLengthsERKS_ImSaImEEm
FN:91,_ZZ9decodePNGRSt6vectorIhSaIhEERmS3_PKhmbENK4Zlib11HuffmanTree6decodeERbS3_S3_m
FN:102,_ZZ9decodePNGRSt6vectorIhSaIhEERmS3_PKhmbEN4Zlib8InflatorD2Ev
FN:102,_ZZ9decodePNGRSt6vectorIhSaIhEERmS3_PKhmbEN4Zlib8InflatorC2Ev
FN:105,_ZZ9decodePNGRSt6vectorIhSaIhEERmS3_PKhmbEN4Zlib8Inflator7inflateES2_RKS1_m
FN:121,_ZZ9decodePNGRSt6vectorIhSaIhEERmS3_PKhmbEN4Zlib8Inflator18generateFixedTreesERZ9decodePNGS2_S3_S3_S5_mbENS6_11HuffmanTreeES9_
FN:130,_ZZ9decodePNGRSt6vectorIhSaIhEERmS3_PKhmbEN4Zlib8Inflator19huffmanDecodeSymbolES5_S3_RKZ9decodePNGS2_S3_S3_S5_mbENS6_11HuffmanTreeEm
FN:140,_ZZ9decodePNGRSt6vectorIhSaIhEERmS3_PKhmbEN4Zlib8Inflator21getTreeInflateDynamicERZ9decodePNGS2_S3_S3_S5_mbENS6_11HuffmanTreeES9_S5_S3_m
FN:194,_ZZ9decodePNGRSt6vectorIhSaIhEERmS3_PKhmbEN4Zlib8Inflator19inflateHuffmanBlockES2_S5_S3_S3_mm
FN:223,_ZZ9decodePNGRSt6vectorIhSaIhEERmS3_PKhmbEN4Zlib8Inflator20inflateNoCompressionES2_S5_S3_S3_m
FN:236,_ZZ9decodePNGRSt6vectorIhSaIhEERmS3_PKhmbEN4Zlib10decompressES2_RKS1_
FN:248,_ZZ9decodePNGRSt6vectorIhSaIhEERmS3_PKhmbEN3PNGC2Ev
FN:248,_ZZ9decodePNGRSt6vectorIhSaIhEERmS3_PKhmbEN3PNGD2Ev
FN:250,_ZZ9decodePNGRSt6vectorIhSaIhEERmS3_PKhmbEN3PNG4InfoC2Ev
FN:250,_ZZ9decodePNGRSt6vectorIhSaIhEERmS3_PKhmbEN3PNG4InfoD2Ev
FN:257,_ZZ9decodePNGRSt6vectorIhSaIhEERmS3_PKhmbEN3PNG6decodeES2_S5_mb
FN:368,_ZZ9decodePNGRSt6vectorIhSaIhEERmS3_PKhmbEN3PNG13readPngHeaderES5_m
FN:380,_ZZ9decodePNGRSt6vectorIhSaIhEERmS3_PKhmbEN3PNG16unFilterScanlineEPhS5_S5_mmm
FN:420,_ZZ9decodePNGRSt6vectorIhSaIhEERmS3_PKhmbEN3PNG9adam7PassEPhS7_S7_S5_mmmmmmmm
FN:438,_ZZ9decodePNGRSt6vectorIhSaIhEERmS3_PKhmbEN3PNG25readBitFromReversedStreamES3_S5_
FN:439,_ZZ9decodePNGRSt6vectorIhSaIhEERmS3_PKhmbEN3PNG26readBitsFromReversedStreamES3_S5_m
FN:445,_ZZ9decodePNGRSt6vectorIhSaIhEERmS3_PKhmbEN3PNG22setBitOfReversedStreamES3_Phm
FN:446,_ZZ9decodePNGRSt6vectorIhSaIhEERmS3_PKhmbEN3PNG12read32bitIntES5_
FN:447,_ZZ9decodePNGRSt6vectorIhSaIhEERmS3_PKhmbEN3PNG18checkColorValidityEmm
FN:454,_ZZ9decodePNGRSt6vectorIhSaIhEERmS3_PKhmbEN3PNG6getBppERKZ9decodePNGS2_S3_S3_S5_mbENS6_4InfoE
FN:460,_ZZ9decodePNGRSt6vectorIhSaIhEERmS3_PKhmbEN3PNG7convertES2_S5_RZ9decodePNGS2_S3_S3_S5_mbENS6_4InfoEmm
FN:525,_ZZ9decodePNGRSt6vectorIhSaIhEERmS3_PKhmbEN3PNG14paethPredictorEsss
FN:545,_Z8loadFileRSt6vectorIhSaIhEERKNSt7__cxx1112basic_stringIcSt11char_traitsIcESaIcEEE
FN:563,main
FN:579,_Z41__static_initialization_and_destruction_0ii
FN:579,_GLOBAL__sub_I__Z9decodePNGRSt6vectorIhSaIhEERmS3_PKhmb
FNDA:201,_Z9decodePNGRSt6vectorIhSaIhEERmS3_PKhmb
FNDA:538036,_ZZ9decodePNGRSt6vectorIhSaIhEERmS3_PKhmbEN4Zlib17readBitFromStreamES3_S5_
FNDA:27412,_ZZ9decodePNGRSt6vectorIhSaIhEERmS3_PKhmbEN4Zlib18readBitsFromStreamES3_S5_m
FNDA:501,_ZZ9decodePNGRSt6vectorIhSaIhEERmS3_PKhmbEN4Zlib11HuffmanTreeD2Ev
FNDA:501,_ZZ9decodePNGRSt6vectorIhSaIhEERmS3_PKhmbEN4Zlib11HuffmanTreeC2Ev
FNDA:438,_ZZ9decodePNGRSt6vectorIhSaIhEERmS3_PKhmbEN4Zlib11HuffmanTree15makeFromLengthsERKS_ImSaImEEm
FNDA:458835,_ZZ9decodePNGRSt6vectorIhSaIhEERmS3_PKhmbENK4Zlib11HuffmanTree6decodeERbS3_S3_m
FNDA:167,_ZZ9decodePNGRSt6vectorIhSaIhEERmS3_PKhmbEN4Zlib8InflatorD2Ev
FNDA:167,_ZZ9decodePNGRSt6vectorIhSaIhEERmS3_PKhmbEN4Zlib8InflatorC2Ev
FNDA:166,_ZZ9decodePNGRSt6vectorIhSaIhEERmS3_PKhmbEN4Zlib8Inflator7inflateES2_RKS1_m
FNDA:57,_ZZ9decodePNGRSt6vectorIhSaIhEERmS3_PKhmbEN4Zlib8Inflator18generateFixedTreesERZ9decodePNGS2_S3_S3_S5_mbENS6_11HuffmanTreeES9_
FNDA:89892,_ZZ9decodePNGRSt6vectorIhSaIhEERmS3_PKhmbEN4Zlib8Inflator19huffmanDecodeSymbolES5_S3_RKZ9decodePNGS2_S3_S3_S5_mbENS6_11HuffmanTreeEm
FNDA:108,_ZZ9decodePNGRSt6vectorIhSaIhEERmS3_PKhmbEN4Zlib8Inflator21getTreeInflateDynamicERZ9decodePNGS2_S3_S3_S5_mbENS6_11HuffmanTreeES9_S5_S3_m
FNDA:165,_ZZ9decodePNGRSt6vectorIhSaIhEERmS3_PKhmbEN4Zlib8Inflator19inflateHuffmanBlockES2_S5_S3_S3_mm
FNDA:1,_ZZ9decodePNGRSt6vectorIhSaIhEERmS3_PKhmbEN4Zlib8Inflator20inflateNoCompressionES2_S5_S3_S3_m
FNDA:167,_ZZ9decodePNGRSt6vectorIhSaIhEERmS3_PKhmbEN4Zlib10decompressES2_RKS1_
FNDA:201,_ZZ9decodePNGRSt6vectorIhSaIhEERmS3_PKhmbEN3PNGD2Ev
FNDA:201,_ZZ9decodePNGRSt6vectorIhSaIhEERmS3_PKhmbEN3PNGC2Ev
FNDA:201,_ZZ9decodePNGRSt6vectorIhSaIhEERmS3_PKhmbEN3PNG4InfoD2Ev
FNDA:201,_ZZ9decodePNGRSt6vectorIhSaIhEERmS3_PKhmbEN3PNG4InfoC2Ev
FNDA:201,_ZZ9decodePNGRSt6vectorIhSaIhEERmS3_PKhmbEN3PNG6decodeES2_S5_mb
FNDA:201,_ZZ9decodePNGRSt6vectorIhSaIhEERmS3_PKhmbEN3PNG13readPngHeaderES5_m
FNDA:5568,_ZZ9decodePNGRSt6vectorIhSaIhEERmS3_PKhmbEN3PNG16unFilterScanlineEPhS5_S5_mmm
FNDA:245,_ZZ9decodePNGRSt6vectorIhSaIhEERmS3_PKhmbEN3PNG9adam7PassEPhS7_S7_S5_mmmmmmmm
FNDA:417078,_ZZ9decodePNGRSt6vectorIhSaIhEERmS3_PKhmbEN3PNG25readBitFromReversedStreamES3_S5_
FNDA:58837,_ZZ9decodePNGRSt6vectorIhSaIhEERmS3_PKhmbEN3PNG26readBitsFromReversedStreamES3_S5_m
FNDA:208539,_ZZ9decodePNGRSt6vectorIhSaIhEERmS3_PKhmbEN3PNG22setBitOfReversedStreamES3_Phm
FNDA:1473,_ZZ9decodePNGRSt6vectorIhSaIhEERmS3_PKhmbEN3PNG12read32bitIntES5_
FNDA:195,_ZZ9decodePNGRSt6vectorIhSaIhEERmS3_PKhmbEN3PNG18checkColorValidityEmm
FNDA:167,_ZZ9decodePNGRSt6vectorIhSaIhEERmS3_PKhmbEN3PNG6getBppERKZ9decodePNGS2_S3_S3_S5_mbENS6_4InfoE
FNDA:161,_ZZ9decodePNGRSt6vectorIhSaIhEERmS3_PKhmbEN3PNG7convertES2_S5_RZ9decodePNGS2_S3_S3_S5_mbENS6_4InfoEmm
FNDA:207236,_ZZ9decodePNGRSt6vectorIhSaIhEERmS3_PKhmbEN3PNG14paethPredictorEsss
FNDA:201,_Z8loadFileRSt6vectorIhSaIhEERKNSt7__cxx1112basic_stringIcSt11char_traitsIcESaIcEEE
FNDA:201,main
FNDA:201,_GLOBAL__sub_I__Z9decodePNGRSt6vectorIhSaIhEERmS3_PKhmb
FNDA:201,_Z41__static_initialization_and_destruction_0ii
FNF:36
FNH:36
DA:25,201
DA:60,538036
DA:61,27412
DA:63,27412
DA:64,27412
DA:65,27412
DA:67,1002
DA:69,438
DA:71,438
DA:72,876
DA:73,438
DA:74,438
DA:75,438
DA:76,438
DA:77,55290
DA:78,273747
DA:80,218895
DA:81,218895
DA:82,218895
DA:84,56822
DA:85,27973
DA:87,162073
DA:89,438
DA:91,458835
DA:93,458835
DA:94,458835
DA:95,458835
DA:96,458835
DA:97,458835
DA:98,458835
DA:102,334
DA:105,166
DA:107,166
DA:108,166
DA:109,166
DA:110,498
DA:112,166
DA:113,166
DA:114,166
DA:115,166
DA:116,166
DA:117,165
DA:119,166
DA:121,57
DA:123,114
DA:124,57
DA:125,57
DA:126,57
DA:127,57
DA:128,57
DA:130,89892
DA:133,89892
DA:135,827778
DA:136,458835
DA:137,458835
DA:140,108
DA:142,216
DA:143,108
DA:144,108
DA:145,108
DA:146,108
DA:147,216
DA:148,108
DA:149,108
DA:150,108
DA:151,24330
DA:153,12111
DA:154,12111
DA:155,1592
DA:157,206
DA:158,206
DA:160,206
DA:161,9
DA:162,1076
DA:164,870
DA:165,870
DA:168,1386
DA:170,879
DA:171,879
DA:172,5239
DA:174,4360
DA:175,4360
DA:178,507
DA:180,507
DA:181,507
DA:182,16753
DA:184,16246
DA:185,16246
DA:188,0
DA:190,108
DA:191,108
DA:192,108
DA:194,165
DA:196,165
DA:197,108
DA:200,66113
DA:201,65948
DA:202,65783
DA:204,53950
DA:205,53950
DA:207,11833
DA:209,11833
DA:210,11833
DA:211,11833
DA:212,11833
DA:213,11833
DA:214,11833
DA:215,11833
DA:216,11833
DA:217,11833
DA:218,11833
DA:219,11833
DA:221,65783
DA:223,6
DA:225,6
DA:226,1
DA:227,1
DA:228,1
DA:229,1
DA:230,1
DA:231,1
DA:232,1
DA:233,1
DA:236,167
DA:238,334
DA:239,167
DA:240,166
DA:241,166
DA:242,166
DA:243,166
DA:244,166
DA:245,166
DA:248,402
DA:250,402
DA:257,201
DA:259,201
DA:260,236
DA:261,201
DA:262,190
DA:263,356
DA:264,190
DA:265,190
DA:266,2318
DA:268,1087
DA:269,1083
DA:270,1083
DA:271,1083
DA:272,1064
DA:274,496
DA:275,496
DA:277,568
DA:278,401
DA:280,66
DA:281,66
DA:282,66
DA:283,3481
DA:285,3415
DA:286,3415
DA:287,66
DA:289,335
DA:291,11
DA:292,11
DA:294,6
DA:295,6
DA:297,5
DA:299,2
DA:300,2
DA:302,3
DA:304,3
DA:305,3
DA:306,3
DA:307,3
DA:308,3
DA:310,0
DA:314,324
DA:315,324
DA:316,324
DA:318,1064
DA:320,167
DA:321,333
DA:323,167
DA:324,166
DA:325,166
DA:326,166
DA:327,166
DA:329,131
DA:330,131
DA:331,2658
DA:333,2576
DA:334,2576
DA:335,2576
DA:336,2576
DA:340,98
DA:341,1317
DA:343,1268
DA:344,1268
DA:345,1268
DA:346,1268
DA:347,1268
DA:353,35
DA:354,35
DA:355,35
DA:356,35
DA:357,35
DA:358,70
DA:359,280
DA:360,245
DA:362,166
DA:364,322
DA:365,161
DA:368,201
DA:370,201
DA:371,201
DA:372,195
DA:373,195
DA:374,195
DA:375,195
DA:376,195
DA:377,195
DA:378,195
DA:380,5568
DA:382,5568
DA:384,3021
DA:385,374
DA:386,374
DA:387,374
DA:388,374
DA:389,329
DA:390,329
DA:391,2
DA:392,329
DA:393,86
DA:394,86
DA:396,79
DA:397,79
DA:401,7
DA:402,7
DA:404,86
DA:405,1758
DA:406,1758
DA:408,1756
DA:409,1756
DA:413,2
DA:414,2
DA:416,1758
DA:417,0
DA:420,245
DA:422,245
DA:423,238
DA:424,1962
DA:426,1724
DA:427,1724
DA:428,39612
DA:429,37888
DA:430,19217
DA:432,18153
DA:433,18153
DA:435,1724
DA:438,417078
DA:439,58837
DA:441,58837
DA:442,58837
DA:443,58837
DA:445,208539
DA:446,1473
DA:447,195
DA:449,195
DA:450,134
DA:451,84
DA:452,2
DA:454,167
DA:456,167
DA:457,128
DA:458,111
DA:460,161
DA:462,161
DA:463,161
DA:464,161
DA:465,161
DA:466,11275
DA:468,11264
DA:469,11264
DA:470,11
DA:471,150
DA:472,25179
DA:474,25152
DA:475,25152
DA:476,27
DA:477,123
DA:478,13325
DA:480,13312
DA:481,13312
DA:482,13
DA:483,110
DA:484,4100
DA:486,4096
DA:487,4096
DA:488,4
DA:489,106
DA:490,106
DA:491,13325
DA:493,13312
DA:494,13312
DA:495,13
DA:496,93
DA:497,12300
DA:499,12288
DA:500,12288
DA:501,12
DA:502,81
DA:503,4100
DA:505,4096
DA:506,4096
DA:507,4
DA:508,77
DA:509,73
DA:510,20504
DA:512,20482
DA:513,20482
DA:514,20482
DA:515,22
DA:516,51
DA:517,38406
DA:519,38355
DA:520,38355
DA:521,38355
DA:523,161
DA:525,207236
DA:527,207236
DA:528,207236
DA:531,402
DA:532,201
DA:533,402
DA:545,201
DA:547,402
DA:550,201
DA:551,201
DA:552,201
DA:555,201
DA:557,201
DA:558,201
DA:560,0
DA:561,201
DA:563,201
DA:565,201
DA:568,402
DA:569,201
DA:571,201
DA:574,201
DA:578,201
DA:579,804
LF:351
LH:347
end_of_record
